Open Watcom Linker Version 1.9
Portions Copyright (c) 1985-2002 Sybase, Inc. All Rights Reserved.
Created on:       11/08/19 13:24:42
Warning! W1008: cannot open kernel32.lib : No such file or directory
Warning! W1008: cannot open user32.lib : No such file or directory
Executable Image: OWLinuxR\cvpack.
creating an ELF executable


                        +------------+
                        |   Groups   |
                        +------------+

Group                           Address              Size
=====                           =======              ====

DGROUP                          08067000             0001d4c0



                        +--------------+
                        |   Segments   |
                        +--------------+

Segment                Class          Group          Address         Size
=======                =====          =====          =======         ====

BEGTEXT                CODE           AUTO           08048100        00000007
_TEXT                  CODE           AUTO           08048110        0001e8f5
_NULL                  BEGDATA        DGROUP         08067000        00000004
_AFTERNULL             BEGDATA        DGROUP         08067004        00000000
CONST                  DATA           DGROUP         08067004        0000044c
CONST2                 DATA           DGROUP         08067450        0000982c
_DATA                  DATA           DGROUP         08070c80        000027b8
XIB                    DATA           DGROUP         08073438        00000000
XI                     DATA           DGROUP         08073438        00000036
XIE                    DATA           DGROUP         0807346e        00000000
YIB                    DATA           DGROUP         0807346e        00000000
YI                     DATA           DGROUP         0807346e        0000000c
YIE                    DATA           DGROUP         0807347a        00000000
TIB                    DATA           DGROUP         0807347a        00000000
TI                     DATA           DGROUP         0807347a        00000000
TIE                    DATA           DGROUP         0807347a        00000000
DATA                   DATA           DGROUP         0807347a        00000000
_BSS                   BSS            DGROUP         08074000        000104c0


                        +----------------+
                        |   Memory Map   |
                        +----------------+

* = unreferenced symbol
+ = symbol only referenced locally

Address        Symbol
=======        ======

Module: OWLinuxR\cvpack.obj(D:\Projects\JWlink\cvpack\cpp\cvpack.cpp)
08049230+      near FileError::~FileError()
08049240       near OutOfMemory::~OutOfMemory()
08049250       near MiscError::~MiscError()
08049260       near WCExcept::WCExcept()
08049270       near WCExcept::~WCExcept()
08049300+      near TypeIndexMap::~TypeIndexMap()
080493a0       near WCIsvListBase::WCIsvListBase()
08049400+      near Retriever::~Retriever()
08049480+      near ODirectory::~ODirectory()
08049510+      near ExeMaker::~ExeMaker()
08049520+      near TypeArray::TypeArray()
08049560       near TypeArray::~TypeArray()
080495d0       near GlobalTypeArray::~GlobalTypeArray()
080496e0+      near LocalTypeArray::LocalTypeArray()
08049820+      near LocalTypeArray::~LocalTypeArray()
08049960+      near SstGlobalTypes::SstGlobalTypes()
08049ab0+      near SstGlobalTypes::~SstGlobalTypes()
08049c80+      near SstGlobalSym::SstGlobalSym()
08049d10+      near SstGlobalSym::~SstGlobalSym()
08049da0+      near CVpack::~CVpack()
08049e90+      near SymbolDistributor::~SymbolDistributor()
08048170       int unsigned near NumLeafLength( char const near * )
080481b0+      void near ConvertFName( char near * )
08048230+      void near outOfMemory()
08048250+      void near CVpack::DoExeCode()
080482f0+      int unsigned near CVpack::DoSstModule()
08048380+      void near CVpack::DumpSig()
080483a0*      int unsigned near CVpack::DoSrcModule( int unsigned )
08048420+      int unsigned near CVpack::DoSegMap()
080484c0+      void near CVpack::DoAlignSym( SstAlignSym near *, int unsigned )
08048500+      void near CVpack::DoGlobalSym( SstGlobalSym near &, int unsigned )
08048550+      void near CVpack::DoStaticSym( SstGlobalSym near &, int unsigned )
080485a0+      void near CVpack::DoDirectory()
08049fa0       near MiscError::MiscError( MiscError const near & )
08049fc0       near OutOfMemory::OutOfMemory( OutOfMemory const near & )
08049fe0+      near FileError::FileError( FileError const near & )
0804a000       near RetrieveError::RetrieveError( RetrieveError const near & )
0804a010       near RetrieveError::~RetrieveError()
0804a020       near CVpackError::CVpackError( CVpackError const near & )
0804a030       near CVpackError::~CVpackError()
0804a040       void near WCBareVectorBase<TypeIndexMap::__304un0mappingStruct near >::base_init_upto( int )
0804a080       near WCBareVectorBase<TypeIndexMap::__304un0mappingStruct near >::~WCBareVectorBase()
0804a100       void near WCBareVectorBase<void near * near >::base_init_upto( int )
0804a140       near WCBareVectorBase<void near * near >::~WCBareVectorBase()
0804a1c0       near WCVectorBase<void near * near >::~WCVectorBase()
0804a1e0       near WCOrderedVectorBase<void near * near >::~WCOrderedVectorBase()
0804a200       int near WCOrderedVectorBase<void near * near >::base_find( void near * const near &, WCVectorBase<void near * near >::find_type, int near * ) const
0804a260       void near WCPtrVectorBase<LFTypeRecord near,WCOrderedVectorBase<void near * near > near >::base_init_upto( int )
0804a2a0       near WCPtrVectorBase<LFTypeRecord near,WCOrderedVectorBase<void near * near > near >::~WCPtrVectorBase()
0804a2c0       near WCValVector<TypeIndexMap::__304un0mappingStruct near >::~WCValVector()
0804a360+      near WCValVector<void near * near >::~WCValVector()
0804a400+      near WCPtrVector<SymbolStruct near >::WCPtrVector( int unsigned )
0804a460+      near WCPtrVector<SymbolStruct near >::~WCPtrVector()
0804a520       void near WCPtrVector<SymbolStruct near >::base_init_upto( int )
0804a560       int near WCPtrOrderedVector<LFTypeRecord near >::base_equivalent( void near * const near &, void near * const near & ) const
0804a570       near WCPtrOrderedVector<LFTypeRecord near >::WCPtrOrderedVector( int unsigned, int unsigned )
0804a610       near WCPtrOrderedVector<LFTypeRecord near >::~WCPtrOrderedVector()
0804a6c0       near MyValBoundVector<TypeIndexMap::__304un0mappingStruct near >::~MyValBoundVector()
0804a7b0       void near WCIsvSListBase<WCNIsvSLink<cv_dir_entry near * near > near >::WCListDelete( WCSLink near * )
0804a810       near WCIsvSListBase<WCNIsvSLink<cv_dir_entry near * near > near >::~WCIsvSListBase()
0804a830       void near WCIsvSListBase<WCNIsvSLink<LFSubField near * near > near >::WCListDelete( WCSLink near * )
0804a890       near WCIsvSListBase<WCNIsvSLink<LFSubField near * near > near >::~WCIsvSListBase()
0804a8b0       void near WCIsvSListBase<WCNIsvSLink<my_ct_mlist near * near > near >::WCListDelete( WCSLink near * )
0804a910       near WCIsvSListBase<WCNIsvSLink<my_ct_mlist near * near > near >::~WCIsvSListBase()
0804a930       void near WCIsvSListBase<WCNIsvSLink<short unsigned near > near >::WCListDelete( WCSLink near * )
0804a990       near WCIsvSListBase<WCNIsvSLink<short unsigned near > near >::~WCIsvSListBase()
0804a9b0       void near WCIsvSListBase<WCNIsvSLink<LFGlobalTypeRecord near * near > near >::WCListDelete( WCSLink near * )
0804aa10       near WCIsvSListBase<WCNIsvSLink<LFGlobalTypeRecord near * near > near >::~WCIsvSListBase()
0804aa30       void near WCIsvSListBase<WCNIsvSLink<LFTypeRecord near * near > near >::WCListDelete( WCSLink near * )
0804aa90       near WCIsvSListBase<WCNIsvSLink<LFTypeRecord near * near > near >::~WCIsvSListBase()
0804aab0       void near WCIsvSListBase<WCNIsvSLink<SymbolStruct near * near > near >::WCListDelete( WCSLink near * )
0804ab10       near WCIsvSListBase<WCNIsvSLink<SymbolStruct near * near > near >::~WCIsvSListBase()
0804ab30       void near WCIsvSListBase<WCNIsvSLink<NameHashTable::chain_table near * near > near >::WCListDelete( WCSLink near * )
0804ab90       near WCIsvSListBase<WCNIsvSLink<NameHashTable::chain_table near * near > near >::~WCIsvSListBase()
0804abb0       void near WCIsvSListBase<WCNIsvSLink<AddrHashTable::offset_table near * near > near >::WCListDelete( WCSLink near * )
0804ac10       near WCIsvSListBase<WCNIsvSLink<AddrHashTable::offset_table near * near > near >::~WCIsvSListBase()
0804ac30       void near WCValListBase<cv_dir_entry near * near,WCIsvSListBase<WCNIsvSLink<cv_dir_entry near * near > near > near,WCNIsvSLink<cv_dir_entry near * near > near >::WCListDelete( WCSLink near * )
0804ac50       near WCValListBase<cv_dir_entry near * near,WCIsvSListBase<WCNIsvSLink<cv_dir_entry near * near > near > near,WCNIsvSLink<cv_dir_entry near * near > near >::~WCValListBase()
0804acd0       void near WCValListBase<LFSubField near * near,WCIsvSListBase<WCNIsvSLink<LFSubField near * near > near > near,WCNIsvSLink<LFSubField near * near > near >::WCListDelete( WCSLink near * )
0804acf0       near WCValListBase<LFSubField near * near,WCIsvSListBase<WCNIsvSLink<LFSubField near * near > near > near,WCNIsvSLink<LFSubField near * near > near >::~WCValListBase()
0804ad70       void near WCValListBase<my_ct_mlist near * near,WCIsvSListBase<WCNIsvSLink<my_ct_mlist near * near > near > near,WCNIsvSLink<my_ct_mlist near * near > near >::WCListDelete( WCSLink near * )
0804ad90       near WCValListBase<my_ct_mlist near * near,WCIsvSListBase<WCNIsvSLink<my_ct_mlist near * near > near > near,WCNIsvSLink<my_ct_mlist near * near > near >::~WCValListBase()
0804ae10       void near WCValListBase<short unsigned near,WCIsvSListBase<WCNIsvSLink<short unsigned near > near > near,WCNIsvSLink<short unsigned near > near >::WCListDelete( WCSLink near * )
0804ae30       near WCValListBase<short unsigned near,WCIsvSListBase<WCNIsvSLink<short unsigned near > near > near,WCNIsvSLink<short unsigned near > near >::~WCValListBase()
0804aeb0       void near WCValListBase<LFGlobalTypeRecord near * near,WCIsvSListBase<WCNIsvSLink<LFGlobalTypeRecord near * near > near > near,WCNIsvSLink<LFGlobalTypeRecord near * near > near >::WCListDelete( WCSLink near * )
0804aed0       near WCValListBase<LFGlobalTypeRecord near * near,WCIsvSListBase<WCNIsvSLink<LFGlobalTypeRecord near * near > near > near,WCNIsvSLink<LFGlobalTypeRecord near * near > near >::~WCValListBase()
0804af50       void near WCValListBase<LFTypeRecord near * near,WCIsvSListBase<WCNIsvSLink<LFTypeRecord near * near > near > near,WCNIsvSLink<LFTypeRecord near * near > near >::WCListDelete( WCSLink near * )
0804af70       near WCValListBase<LFTypeRecord near * near,WCIsvSListBase<WCNIsvSLink<LFTypeRecord near * near > near > near,WCNIsvSLink<LFTypeRecord near * near > near >::~WCValListBase()
0804aff0       void near WCValListBase<SymbolStruct near * near,WCIsvSListBase<WCNIsvSLink<SymbolStruct near * near > near > near,WCNIsvSLink<SymbolStruct near * near > near >::WCListDelete( WCSLink near * )
0804b010       near WCValListBase<SymbolStruct near * near,WCIsvSListBase<WCNIsvSLink<SymbolStruct near * near > near > near,WCNIsvSLink<SymbolStruct near * near > near >::~WCValListBase()
0804b090       void near WCValListBase<NameHashTable::chain_table near * near,WCIsvSListBase<WCNIsvSLink<NameHashTable::chain_table near * near > near > near,WCNIsvSLink<NameHashTable::chain_table near * near > near >::WCListDelete( WCSLink near * )
0804b0b0       near WCValListBase<NameHashTable::chain_table near * near,WCIsvSListBase<WCNIsvSLink<NameHashTable::chain_table near * near > near > near,WCNIsvSLink<NameHashTable::chain_table near * near > near >::~WCValListBase()
0804b130       void near WCValListBase<AddrHashTable::offset_table near * near,WCIsvSListBase<WCNIsvSLink<AddrHashTable::offset_table near * near > near > near,WCNIsvSLink<AddrHashTable::offset_table near * near > near >::WCListDelete( WCSLink near * )
0804b150       near WCValListBase<AddrHashTable::offset_table near * near,WCIsvSListBase<WCNIsvSLink<AddrHashTable::offset_table near * near > near > near,WCNIsvSLink<AddrHashTable::offset_table near * near > near >::~WCValListBase()
0804b1d0+      near WCPtrListBase<cv_dir_entry near,WCValSList<cv_dir_entry near * near > near >::~WCPtrListBase()
0804b240       void near WCPtrListBase<cv_dir_entry near,WCValSList<cv_dir_entry near * near > near >::clearAndDestroy()
0804b270       void near WCPtrListBase<LFSubField near,WCValSList<LFSubField near * near > near >::clearAndDestroy()
0804b2b0       void near WCPtrListBase<my_ct_mlist near,WCValSList<my_ct_mlist near * near > near >::clearAndDestroy()
0804b2e0       near WCPtrListBase<LFTypeRecord near,WCValSList<LFTypeRecord near * near > near >::~WCPtrListBase()
0804b350       near WCPtrListBase<SymbolStruct near,WCValSList<SymbolStruct near * near > near >::~WCPtrListBase()
0804b3c0       void near WCPtrListBase<SymbolStruct near,WCValSList<SymbolStruct near * near > near >::clearAndDestroy()
0804b400       void near WCPtrListBase<NameHashTable::chain_table near,WCValSList<NameHashTable::chain_table near * near > near >::clearAndDestroy()
0804b430       void near WCPtrListBase<AddrHashTable::offset_table near,WCValSList<AddrHashTable::offset_table near * near > near >::clearAndDestroy()
0804b460+      int near WCValSList<cv_dir_entry near * near >::base_equivalent( cv_dir_entry near * const near &, cv_dir_entry near * const near & ) const
0804b470+      near WCValSList<cv_dir_entry near * near >::~WCValSList()
0804b510       int near WCValSList<LFTypeRecord near * near >::base_equivalent( LFTypeRecord near * const near &, LFTypeRecord near * const near & ) const
0804b520       near WCValSList<LFTypeRecord near * near >::~WCValSList()
0804b5c0       int near WCValSList<SymbolStruct near * near >::base_equivalent( SymbolStruct near * const near &, SymbolStruct near * const near & ) const
0804b5d0       near WCValSList<SymbolStruct near * near >::~WCValSList()
0804b670+      int near WCPtrSList<cv_dir_entry near >::base_equivalent( cv_dir_entry near * const near &, cv_dir_entry near * const near & ) const
0804b680+      near WCPtrSList<cv_dir_entry near >::WCPtrSList()
0804b720+      near WCPtrSList<cv_dir_entry near >::~WCPtrSList()
0804b7e0       int near WCPtrSList<LFTypeRecord near >::base_equivalent( LFTypeRecord near * const near &, LFTypeRecord near * const near & ) const
0804b7f0       near WCPtrSList<LFTypeRecord near >::WCPtrSList()
0804b890       near WCPtrSList<LFTypeRecord near >::~WCPtrSList()
0804b950       int near WCPtrSList<SymbolStruct near >::base_equivalent( SymbolStruct near * const near &, SymbolStruct near * const near & ) const
0804b960       near WCPtrSList<SymbolStruct near >::WCPtrSList()
0804ba00       near WCPtrSList<SymbolStruct near >::~WCPtrSList()
0804bac0       int near WCBareVectorBase<void near * near >::resize( int unsigned )
0804bb70       int near WCVectorBase<void near * near >::base_index_check( int ) const
0804bbf0       int near WCVectorBase<void near * near >::resize( int unsigned )
0804bc20       near WCPtrVectorBase<LFTypeRecord near,WCOrderedVectorBase<void near * near > near >::WCPtrVectorBase( int unsigned, int unsigned )
0804bcb0       near WCValVector<TypeIndexMap::__304un0mappingStruct near >::WCValVector( int unsigned )
0804bcc0       TypeIndexMap::__304un0mappingStruct near & near WCValVector<TypeIndexMap::__304un0mappingStruct near >::operator []( int )
0804bd30+      near WCValVector<void near * near >::WCValVector( int unsigned )
0804bd40       near MyValBoundVector<TypeIndexMap::__304un0mappingStruct near >::MyValBoundVector( short unsigned, int unsigned )
0804bdb0       int near WCValListBase<short unsigned near,WCIsvSListBase<WCNIsvSLink<short unsigned near > near > near,WCNIsvSLink<short unsigned near > near >::insert( short unsigned const near & )
0804bde0       int near WCValListBase<LFGlobalTypeRecord near * near,WCIsvSListBase<WCNIsvSLink<LFGlobalTypeRecord near * near > near > near,WCNIsvSLink<LFGlobalTypeRecord near * near > near >::insert( LFGlobalTypeRecord near * const near & )
0804be10       LFGlobalTypeRecord near * near WCValListBase<LFGlobalTypeRecord near * near,WCIsvSListBase<WCNIsvSLink<LFGlobalTypeRecord near * near > near > near,WCNIsvSLink<LFGlobalTypeRecord near * near > near >::get( int )
0804be40       int near WCValListBase<LFTypeRecord near * near,WCIsvSListBase<WCNIsvSLink<LFTypeRecord near * near > near > near,WCNIsvSLink<LFTypeRecord near * near > near >::append( LFTypeRecord near * const near & )
0804be70       int near WCValListBase<SymbolStruct near * near,WCIsvSListBase<WCNIsvSLink<SymbolStruct near * near > near > near,WCNIsvSLink<SymbolStruct near * near > near >::append( SymbolStruct near * const near & )
0804bea0+      near WCPtrListBase<cv_dir_entry near,WCValSList<cv_dir_entry near * near > near >::WCPtrListBase( void near * (near *)( ), void (near *)())
0804bf40       near WCPtrListBase<LFTypeRecord near,WCValSList<LFTypeRecord near * near > near >::WCPtrListBase( void near * (near *)( ), void (near *)())
0804bfe0       near WCPtrListBase<SymbolStruct near,WCValSList<SymbolStruct near * near > near >::WCPtrListBase( void near * (near *)( ), void (near *)())
0804c080+      near WCValSList<cv_dir_entry near * near >::WCValSList( void near * (near *)( ), void (near *)())
0804c120       near WCValSList<LFTypeRecord near * near >::WCValSList( void near * (near *)( ), void (near *)())
0804c1c0       near WCValSList<SymbolStruct near * near >::WCValSList( void near * (near *)( ), void (near *)())
0804c260       near WCBareVectorBase<TypeIndexMap::__304un0mappingStruct near >::WCBareVectorBase( int unsigned )
0804c2f0       int near WCBareVectorBase<TypeIndexMap::__304un0mappingStruct near >::resize( int unsigned )
0804c3d0       near WCBareVectorBase<void near * near >::WCBareVectorBase( int unsigned )
0804c460       int near WCVectorBase<void near * near >::base_insert_at( int, void near * const near & )
0804c550       near WCOrderedVectorBase<void near * near >::WCOrderedVectorBase( int unsigned, int unsigned )
0804c5d0+      near WCValListBase<cv_dir_entry near * near,WCIsvSListBase<WCNIsvSLink<cv_dir_entry near * near > near > near,WCNIsvSLink<cv_dir_entry near * near > near >::WCValListBase( void near * (near *)( ), void (near *)())
0804c660       cv_dir_entry near * near WCValListBase<cv_dir_entry near * near,WCIsvSListBase<WCNIsvSLink<cv_dir_entry near * near > near > near,WCNIsvSLink<cv_dir_entry near * near > near >::get( int )
0804c690       LFSubField near * near WCValListBase<LFSubField near * near,WCIsvSListBase<WCNIsvSLink<LFSubField near * near > near > near,WCNIsvSLink<LFSubField near * near > near >::get( int )
0804c6c0       my_ct_mlist near * near WCValListBase<my_ct_mlist near * near,WCIsvSListBase<WCNIsvSLink<my_ct_mlist near * near > near > near,WCNIsvSLink<my_ct_mlist near * near > near >::get( int )
0804c6f0       WCNIsvSLink<short unsigned near > near * near WCValListBase<short unsigned near,WCIsvSListBase<WCNIsvSLink<short unsigned near > near > near,WCNIsvSLink<short unsigned near > near >::WCListNew( short unsigned const near & )
0804c730       WCNIsvSLink<LFGlobalTypeRecord near * near > near * near WCValListBase<LFGlobalTypeRecord near * near,WCIsvSListBase<WCNIsvSLink<LFGlobalTypeRecord near * near > near > near,WCNIsvSLink<LFGlobalTypeRecord near * near > near >::WCListNew( LFGlobalTypeRecord near * const near & )
0804c770       near WCValListBase<LFTypeRecord near * near,WCIsvSListBase<WCNIsvSLink<LFTypeRecord near * near > near > near,WCNIsvSLink<LFTypeRecord near * near > near >::WCValListBase( void near * (near *)( ), void (near *)())
0804c800       WCNIsvSLink<LFTypeRecord near * near > near * near WCValListBase<LFTypeRecord near * near,WCIsvSListBase<WCNIsvSLink<LFTypeRecord near * near > near > near,WCNIsvSLink<LFTypeRecord near * near > near >::WCListNew( LFTypeRecord near * const near & )
0804c840       near WCValListBase<SymbolStruct near * near,WCIsvSListBase<WCNIsvSLink<SymbolStruct near * near > near > near,WCNIsvSLink<SymbolStruct near * near > near >::WCValListBase( void near * (near *)( ), void (near *)())
0804c8d0       WCNIsvSLink<SymbolStruct near * near > near * near WCValListBase<SymbolStruct near * near,WCIsvSListBase<WCNIsvSLink<SymbolStruct near * near > near > near,WCNIsvSLink<SymbolStruct near * near > near >::WCListNew( SymbolStruct near * const near & )
0804c910       SymbolStruct near * near WCValListBase<SymbolStruct near * near,WCIsvSListBase<WCNIsvSLink<SymbolStruct near * near > near > near,WCNIsvSLink<SymbolStruct near * near > near >::get( int )
0804c940       NameHashTable::chain_table near * near WCValListBase<NameHashTable::chain_table near * near,WCIsvSListBase<WCNIsvSLink<NameHashTable::chain_table near * near > near > near,WCNIsvSLink<NameHashTable::chain_table near * near > near >::get( int )
0804c970       AddrHashTable::offset_table near * near WCValListBase<AddrHashTable::offset_table near * near,WCIsvSListBase<WCNIsvSLink<AddrHashTable::offset_table near * near > near > near,WCNIsvSLink<AddrHashTable::offset_table near * near > near >::get( int )
0804c9a0       near WCVectorBase<void near * near >::WCVectorBase( int unsigned, int unsigned )
0804ca00+      near WCIsvSListBase<WCNIsvSLink<cv_dir_entry near * near > near >::WCIsvSListBase()
0804ca70       near WCIsvSListBase<WCNIsvSLink<LFTypeRecord near * near > near >::WCIsvSListBase()
0804cae0       near WCIsvSListBase<WCNIsvSLink<SymbolStruct near * near > near >::WCIsvSListBase()
08048660+      void near CVpack::DoPublics( int unsigned, int unsigned )
080488b0+      void near CVpack::DoLibraries()
08048930+      void near CVpack::DoGlobalTypes( SstGlobalTypes near & )
08048980+      void near CVpack::CreatePackExe()
08048eb0       main_
08074100       TypeIndexMap near TypeMap
Module: OWLinuxR\retrieve.obj(D:\Projects\JWlink\cvpack\cpp\retrieve.cpp)
0804d3a0+      near DebugInfoError::DebugInfoError()
0804d3b0+      near DebugInfoError::~DebugInfoError()
0804d3c0       near InternalError::~InternalError()
0804cb70       bool near cv_dir_entry::operator ==( cv_dir_entry const near & ) const
0804cb90+      near Directory::Directory( std::ifstream near &, long )
0804cc60*      int near Directory::CompMod( long unsigned, long unsigned )
0804cc80+      int near Directory::CompSub( short unsigned, short unsigned )
0804ccb0+      bool near Directory::IsModule( short unsigned )
0804ccd0+      bool near Directory::IsModuleBasis( short unsigned, short unsigned )
0804ccf0+      int near Directory::Compare( void const near *, void const near * )
0804cd50+      bool near Directory::GetDirInfo( __2c62hldir_info near &, __anonymous_enum, long unsigned )
0804cda0+      bool near Directory::IsAtSubsection( __anonymous_enum )
0804cdc0       near Directory::~Directory()
0804cdf0+      long near Retriever::GetBasePos()
0804ce70+      long near Retriever::GetPEDebugDirCVEntryPos()
0804cef0+      long near Retriever::GetDirPos()
0804cf50       long unsigned near Retriever::SeekRead( void near *, long, int unsigned )
0804d010       near Retriever::Retriever( std::ifstream near & )
0804d0f0+      void near Retriever::CheckSig()
0804d180+      long unsigned near Retriever::LocalPageOff( long unsigned ) const
0804d190*      bool near Retriever::IsCrossPage( __2c62hldir_info const near & ) const
0804d1b0+      void near Retriever::ReadPage( long unsigned )
0804d1f0*      bool near Retriever::IsInCurrentPage( long unsigned ) const
0804d210*      char near * near Retriever::Read( __2c62hldir_info const near & )
0804d410       near InternalError::InternalError( InternalError const near & )
0804d430+      near CVSigError::CVSigError()
0804d440+      near CVSigError::CVSigError( CVSigError const near & )
0804d450+      near CVSigError::~CVSigError()
0804d460+      near DebugInfoError::DebugInfoError( DebugInfoError const near & )
0804d2c0       bool near Retriever::ReadSubsection( char near * near &, long unsigned near &, __anonymous_enum, long unsigned )
0804d380       bool near Retriever::IsAtSubsection( __anonymous_enum )
08070fb0+      char unsigned near Directory::_orderTable[]
08074120+      char near Retriever::_inputBuffer[]
Module: OWLinuxR\cverror.obj(D:\Projects\JWlink\cvpack\cpp\cverror.cpp)
0804d470       void near CVpackError::ErrorPrint() const
0804d490       void near RetrieveError::ErrorPrint() const
0804d4c0       void near WriteError::ErrorPrint() const
0804d4f0       near FileError::FileError( char const near * )
0804d500       void near FileError::ErrorPrint() const
0804d530       void near DebugInfoError::ErrorPrint() const
0804d560       void near CVSigError::ErrorPrint() const
0804d590       near OutOfMemory::OutOfMemory( int unsigned )
0804d5a0       void near OutOfMemory::ErrorPrint() const
0804d5d0       near InternalError::InternalError( char const near * )
0804d5e0       void near InternalError::ErrorPrint() const
0804d610       near MiscError::MiscError( char const near * )
0804d620       void near MiscError::ErrorPrint() const
Module: OWLinuxR\packtype.obj(D:\Projects\JWlink\cvpack\cpp\packtype.cpp)
08051470       near WCIterExcept::WCIterExcept()
08051480       near WCIterExcept::~WCIterExcept()
08051510       near WCListIterBase::WCListIterBase( WCIsvListBase near * )
08051570       near WCListIterBase::~WCListIterBase()
080515a0       near VariantString::~VariantString()
080515c0+      near LFLeafStruct::~LFLeafStruct()
08051660+      void near LFLeafStruct::FixTypeIndex()
08051670+      bool near LFLeafStruct::IsEqual( LFLeafStruct const near & ) const
08051680+      void near LFLeafStruct::DerivedPut( ExeMaker near & ) const
08051690+      near LFSubField::~LFSubField()
08051730+      void near LFSubField::FixTypeIndex()
08051740+      bool near LFSubField::IsSubFieldEqual( LFSubField const near & ) const
08051750+      void near LFSubField::DerivedPut( ExeMaker near & ) const
08051760+      near LFNotTrans::LFNotTrans()
080517d0+      near LFNotTrans::~LFNotTrans()
08051870+      near LFNull::LFNull()
080518e0+      near LFNull::~LFNull()
08051980+      near LFModifier::~LFModifier()
08051a20+      near LFPointer::~LFPointer()
08051ac0+      near LFArray::~LFArray()
08051b60+      near LFClass::~LFClass()
08051c00+      near LFUnion::~LFUnion()
08051ca0+      near LFEnum::~LFEnum()
08051d40+      near LFProcedure::~LFProcedure()
08051de0+      near LFMFunction::~LFMFunction()
08051e80+      near LFVtShape::~LFVtShape()
08051f20+      near LFCobol0::~LFCobol0()
08051fc0+      near LFCobol1::~LFCobol1()
08052060+      near LFBArray::~LFBArray()
08052100+      near LFLabel::~LFLabel()
080521a0+      near LFDimArray::~LFDimArray()
08052240+      near LFVftPath::~LFVftPath()
08052300+      near LFArgList::~LFArgList()
080523c0+      near LFDefArg::~LFDefArg()
08052460+      near LFFieldList::~LFFieldList()
08052560+      near LFDerived::~LFDerived()
08052620+      near LFBitField::~LFBitField()
080526c0+      near LFMethodList::~LFMethodList()
080527a0+      near LFDimConu::~LFDimConu()
08052840+      near LFDimConlu::~LFDimConlu()
080528e0+      near LFBClass::~LFBClass()
08052980+      near LFVBClass::~LFVBClass()
08052a20+      near LFEnumerate::~LFEnumerate()
08052ac0+      near LFFriendFcn::~LFFriendFcn()
08052b60+      near LFIndex::~LFIndex()
08052c00+      near LFMember::~LFMember()
08052ca0+      near LFMethod::~LFMethod()
08052d40+      near LFNestedType::~LFNestedType()
08052de0+      near LFVFuncTab::~LFVFuncTab()
08052e80+      near LFFriendCls::~LFFriendCls()
08052f20+      near LFOneMethod::~LFOneMethod()
08052fc0+      near LFVFuncOff::~LFVFuncOff()
0804d740*      bool near LFLeafStruct::operator ==( LFLeafStruct const near & ) const
0804d760+      bool near LFSubField::operator ==( LFSubField const near & ) const
0804d780+      bool near my_ct_mlist::operator ==( my_ct_mlist const near & ) const
0804d7a0+      near LFLeafStruct::LFLeafStruct( short unsigned, char const near *, int unsigned )
0804d7f0       bool near LFLeafStruct::IsEquivalent( LFLeafStruct const near & ) const
0804d840       LFLeafStruct near * near LFLeafStruct::Error( char const near *, int unsigned )
0804d860       void near LFLeafStruct::SetLocalTypeArray( TypeArray near & )
0804d870       void near LFLeafStruct::SetGlobalTypeArray( TypeArray near & )
0804d880       void near LFLeafStruct::Put( ExeMaker near & ) const
0804d8c0+      bool near LFLeafStruct::TypeEqual( short unsigned, short unsigned )
0804d970+      bool near LFLeafStruct::TypeListEqual( short unsigned const near *, short unsigned const near *, int unsigned )
0804d9a0+      bool near LFLeafStruct::AttrEqual( cv_fldattr, cv_fldattr )
0804da20+      bool near LFLeafStruct::AttrEqual( cv_attrib, cv_attrib )
0804da70+      bool near LFLeafStruct::AttrEqual( cv_ptrattr, cv_ptrattr )
0804db10+      bool near LFLeafStruct::AttrEqual( cv_sprop, cv_sprop )
0804dc00+      near LFSubField::LFSubField( short unsigned, int unsigned, char const near *, int unsigned )
0804dc70+      bool near LFModifier::IsEqual( LFLeafStruct const near & ) const
0804dcb0+      bool near LFPointer::IsEqual( LFLeafStruct const near & ) const
0804dd00+      bool near LFArray::IsEqual( LFLeafStruct const near & ) const
0804dd40+      bool near LFClass::IsEqual( LFLeafStruct const near & ) const
0804dd90+      bool near LFUnion::IsEqual( LFLeafStruct const near & ) const
0804ddd0+      bool near LFEnum::IsEqual( LFLeafStruct const near & ) const
0804de20+      bool near LFProcedure::IsEqual( LFLeafStruct const near & ) const
0804de70+      bool near LFMFunction::IsEqual( LFLeafStruct const near & ) const
0804dee0+      bool near LFLabel::IsEqual( LFLeafStruct const near & ) const
0804dee0+      bool near LFVtShape::IsEqual( LFLeafStruct const near & ) const
0804def0+      bool near LFDefArg::IsEqual( LFLeafStruct const near & ) const
0804def0+      bool near LFBArray::IsEqual( LFLeafStruct const near & ) const
0804def0+      bool near LFCobol0::IsEqual( LFLeafStruct const near & ) const
0804df10+      bool near LFDimArray::IsEqual( LFLeafStruct const near & ) const
0804df50+      bool near LFVftPath::IsEqual( LFLeafStruct const near & ) const
0804df80+      bool near LFArgList::IsEqual( LFLeafStruct const near & ) const
0804dfb0+      bool near LFDerived::IsEqual( LFLeafStruct const near & ) const
0804dfe0+      bool near LFBitField::IsEqual( LFLeafStruct const near & ) const
0804e010+      bool near LFMethodList::IsEqual( LFLeafStruct const near & ) const
0804e1e0+      bool near LFDimConu::IsEqual( LFLeafStruct const near & ) const
0804e210+      bool near LFDimConlu::IsEqual( LFLeafStruct const near & ) const
0804e240+      bool near LFBClass::IsSubFieldEqual( LFSubField const near & ) const
0804e280+      bool near LFVBClass::IsSubFieldEqual( LFSubField const near & ) const
0804e2d0+      bool near LFEnumerate::IsSubFieldEqual( LFSubField const near & ) const
0804e2f0+      bool near LFFriendCls::IsSubFieldEqual( LFSubField const near & ) const
0804e2f0+      bool near LFVFuncTab::IsSubFieldEqual( LFSubField const near & ) const
0804e2f0+      bool near LFNestedType::IsSubFieldEqual( LFSubField const near & ) const
0804e2f0+      bool near LFIndex::IsSubFieldEqual( LFSubField const near & ) const
0804e2f0+      bool near LFFriendFcn::IsSubFieldEqual( LFSubField const near & ) const
0804e310+      bool near LFMember::IsSubFieldEqual( LFSubField const near & ) const
0804e350+      bool near LFMethod::IsSubFieldEqual( LFSubField const near & ) const
0804e380+      bool near LFOneMethod::IsSubFieldEqual( LFSubField const near & ) const
0804e3c0+      bool near LFVFuncOff::IsSubFieldEqual( LFSubField const near & ) const
0804e3f0+      bool near LFSubField::IsEqual( LFLeafStruct const near & ) const
0804e410+      bool near LFFieldList::IsEqual( LFLeafStruct const near & ) const
0804e590+      void near LFLeafStruct::FixTypeList( short unsigned near *, int unsigned )
0804e5c0+      void near LFModifier::FixTypeIndex()
0804e5e0+      void near LFPointer::FixTypeIndex()
0804e600+      void near LFArray::FixTypeIndex()
0804e630+      void near LFClass::FixTypeIndex()
0804e670+      void near LFUnion::FixTypeIndex()
0804e690+      void near LFEnum::FixTypeIndex()
0804e6c0+      void near LFProcedure::FixTypeIndex()
0804e6f0+      void near LFMFunction::FixTypeIndex()
0804e740+      void near LFCobol0::FixTypeIndex()
0804e760+      void near LFCobol1::FixTypeIndex()
0804e770+      void near LFBArray::FixTypeIndex()
0804e790+      void near LFLabel::FixTypeIndex()
0804e7a0+      void near LFDimArray::FixTypeIndex()
0804e7d0+      void near LFVftPath::FixTypeIndex()
0804e7e0+      void near LFArgList::FixTypeIndex()
0804e7f0+      void near LFDefArg::FixTypeIndex()
0804e810+      void near LFFieldList::FixTypeIndex()
0804e8e0+      void near LFDerived::FixTypeIndex()
0804e8f0+      void near LFBitField::FixTypeIndex()
0804e910+      void near LFMethodList::FixTypeIndex()
0804e9f0+      void near LFDimConu::FixTypeIndex()
0804ea10+      void near LFDimConlu::FixTypeIndex()
0804ea30+      void near LFBClass::FixTypeIndex()
0804ea50+      void near LFVBClass::FixTypeIndex()
0804ea80+      void near LFEnumerate::FixTypeIndex()
0804ea90+      void near LFFriendFcn::FixTypeIndex()
0804eab0+      void near LFIndex::FixTypeIndex()
0804ead0+      void near LFMember::FixTypeIndex()
0804eaf0+      void near LFMethod::FixTypeIndex()
0804eb10+      void near LFNestedType::FixTypeIndex()
0804eb30+      void near LFVFuncTab::FixTypeIndex()
0804eb50+      void near LFFriendCls::FixTypeIndex()
0804eb70+      void near LFOneMethod::FixTypeIndex()
0804eb90+      void near LFVFuncOff::FixTypeIndex()
0804ebb0       LFLeafStruct near * near LFNotTrans::Construct( char const near *, int unsigned )
0804ec50       LFLeafStruct near * near LFNull::Construct( char const near *, int unsigned )
0804ecf0       LFLeafStruct near * near LFModifier::Construct( char const near *, int unsigned )
0804edc0       LFLeafStruct near * near LFPointer::Construct( char const near *, int unsigned )
0804eed0       LFLeafStruct near * near LFArray::Construct( char const near *, int unsigned )
0804ef90       LFLeafStruct near * near LFClass::Construct( char const near *, int unsigned )
0804f080       LFLeafStruct near * near LFUnion::Construct( char const near *, int unsigned )
0804f160       LFLeafStruct near * near LFEnum::Construct( char const near *, int unsigned )
0804f240       LFLeafStruct near * near LFProcedure::Construct( char const near *, int unsigned )
0804f320       LFLeafStruct near * near LFMFunction::Construct( char const near *, int unsigned )
0804f410       LFLeafStruct near * near LFVtShape::Construct( char const near *, int unsigned )
0804f4d0       LFLeafStruct near * near LFCobol0::Construct( char const near *, int unsigned )
0804f590       LFLeafStruct near * near LFCobol1::Construct( char const near *, int unsigned )
0804f650       LFLeafStruct near * near LFBArray::Construct( char const near *, int unsigned )
0804f710       LFLeafStruct near * near LFLabel::Construct( char const near *, int unsigned )
0804f7d0       LFLeafStruct near * near LFDimArray::Construct( char const near *, int unsigned )
0804f890       LFLeafStruct near * near LFVftPath::Construct( char const near *, int unsigned )
0804f990       LFLeafStruct near * near LFArgList::Construct( char const near *, int unsigned )
0804fa90       LFLeafStruct near * near LFDefArg::Construct( char const near *, int unsigned )
0804fb50       LFLeafStruct near * near LFDerived::Construct( char const near *, int unsigned )
0804fc50       LFLeafStruct near * near LFBitField::Construct( char const near *, int unsigned )
0804fd20       LFLeafStruct near * near LFMethodList::Construct( char const near *, int unsigned )
0804fec0       LFLeafStruct near * near LFDimConu::Construct( char const near *, int unsigned )
0804ff80       LFLeafStruct near * near LFDimConlu::Construct( char const near *, int unsigned )
08050040+      near LFFieldList::LFFieldList( char const near *, int unsigned )
08050140+      int unsigned near LFFieldList::ConvertIndex( short unsigned )
08050180       LFLeafStruct near * near LFFieldList::Construct( char const near *, int unsigned )
08050200+      LFSubField near * near LFSubField::Error( char const near * )
08050230+      char unsigned near LFSubField::PadLen( char const near * )
08050250+      LFSubField near * near LFBClass::Construct( char const near * )
08050340+      LFSubField near * near LFVBClass::Construct( char const near * )
08050450+      LFSubField near * near LFEnumerate::Construct( char const near * )
08050550+      LFSubField near * near LFFriendFcn::Construct( char const near * )
08050630+      LFSubField near * near LFIndex::Construct( char const near * )
080506f0+      LFSubField near * near LFMember::Construct1( char const near * )
080507f0+      LFSubField near * near LFMember::Construct2( char const near * )
080508e0+      LFSubField near * near LFMethod::Construct( char const near * )
080509c0+      LFSubField near * near LFNestedType::Construct( char const near * )
08050aa0+      LFSubField near * near LFVFuncTab::Construct( char const near * )
08050b60+      LFSubField near * near LFFriendCls::Construct( char const near * )
08050c20+      LFSubField near * near LFOneMethod::Construct( char const near * )
08050d10+      LFSubField near * near LFVFuncOff::Construct( char const near * )
08050dd0+      void near LFNotTrans::DerivedPut( ExeMaker near & ) const
08050df0+      void near LFNull::DerivedPut( ExeMaker near & ) const
08050e10+      void near LFModifier::DerivedPut( ExeMaker near & ) const
08050e30+      void near LFPointer::DerivedPut( ExeMaker near & ) const
08050e80+      void near LFArray::DerivedPut( ExeMaker near & ) const
08050ea0+      void near LFClass::DerivedPut( ExeMaker near & ) const
08050ec0+      void near LFUnion::DerivedPut( ExeMaker near & ) const
08050ee0+      void near LFEnum::DerivedPut( ExeMaker near & ) const
08050f00+      void near LFProcedure::DerivedPut( ExeMaker near & ) const
08050f20+      void near LFMFunction::DerivedPut( ExeMaker near & ) const
08050f40+      void near LFVtShape::DerivedPut( ExeMaker near & ) const
08050f60+      void near LFCobol0::DerivedPut( ExeMaker near & ) const
08050f80+      void near LFBArray::DerivedPut( ExeMaker near & ) const
08050fa0+      void near LFLabel::DerivedPut( ExeMaker near & ) const
08050fc0+      void near LFDimArray::DerivedPut( ExeMaker near & ) const
08050fe0+      void near LFVftPath::DerivedPut( ExeMaker near & ) const
08051010+      void near LFArgList::DerivedPut( ExeMaker near & ) const
08051040+      void near LFDefArg::DerivedPut( ExeMaker near & ) const
08051060+      void near LFFieldList::DerivedPut( ExeMaker near & ) const
08051140+      void near LFDerived::DerivedPut( ExeMaker near & ) const
08051170+      void near LFBitField::DerivedPut( ExeMaker near & ) const
08051190+      void near LFMethodList::DerivedPut( ExeMaker near & ) const
080512b0+      void near LFDimConu::DerivedPut( ExeMaker near & ) const
080512d0+      void near LFDimConlu::DerivedPut( ExeMaker near & ) const
080512f0+      void near LFBClass::DerivedPut( ExeMaker near & ) const
08051310+      void near LFVBClass::DerivedPut( ExeMaker near & ) const
08051330+      void near LFEnumerate::DerivedPut( ExeMaker near & ) const
08051350+      void near LFFriendFcn::DerivedPut( ExeMaker near & ) const
08051370+      void near LFIndex::DerivedPut( ExeMaker near & ) const
08051390+      void near LFMember::DerivedPut( ExeMaker near & ) const
080513b0+      void near LFMethod::DerivedPut( ExeMaker near & ) const
080513d0+      void near LFNestedType::DerivedPut( ExeMaker near & ) const
080513f0+      void near LFVFuncTab::DerivedPut( ExeMaker near & ) const
08051410+      void near LFFriendCls::DerivedPut( ExeMaker near & ) const
08053130+      near cv_sprop::__2ghtsf::__2ghtsf( cv_sprop::__2ghtsf const near & )
080531c0+      near cv_fldattr::__902tsf::__902tsf( cv_fldattr::__902tsf const near & )
08053210+      near cv_ptrattr::__101t1f::__101t1f( cv_ptrattr::__101t1f const near & )
08053280+      near cv_attrib::__ru3sof::__ru3sof( cv_attrib::__ru3sof const near & )
080532d0+      near WCPtrListBase<LFSubField near,WCValSList<LFSubField near * near > near >::~WCPtrListBase()
08053340+      near WCPtrListBase<my_ct_mlist near,WCValSList<my_ct_mlist near * near > near >::~WCPtrListBase()
080533b0+      int near WCValSList<LFSubField near * near >::base_equivalent( LFSubField near * const near &, LFSubField near * const near & ) const
080533c0+      near WCValSList<LFSubField near * near >::~WCValSList()
08053460+      int near WCValSList<my_ct_mlist near * near >::base_equivalent( my_ct_mlist near * const near &, my_ct_mlist near * const near & ) const
08053470+      near WCValSList<my_ct_mlist near * near >::~WCValSList()
08053510+      int near WCPtrSList<LFSubField near >::base_equivalent( LFSubField near * const near &, LFSubField near * const near & ) const
08053520+      near WCPtrSList<LFSubField near >::WCPtrSList()
080535c0+      near WCPtrSList<LFSubField near >::~WCPtrSList()
08053680+      int near WCPtrSList<my_ct_mlist near >::base_equivalent( my_ct_mlist near * const near &, my_ct_mlist near * const near & ) const
08053690+      near WCPtrSList<my_ct_mlist near >::WCPtrSList()
08053730+      near WCPtrSList<my_ct_mlist near >::~WCPtrSList()
080537f0+      near WCValListIterBase<my_ct_mlist near * near,WCPtrSList<my_ct_mlist near > near,WCNIsvSLink<my_ct_mlist near * near > near >::~WCValListIterBase()
08053840+      my_ct_mlist near * near WCValListIterBase<my_ct_mlist near * near,WCPtrSList<my_ct_mlist near > near,WCNIsvSLink<my_ct_mlist near * near > near >::current() const
08053860+      near WCValListIterBase<LFSubField near * near,WCPtrSList<LFSubField near > near,WCNIsvSLink<LFSubField near * near > near >::~WCValListIterBase()
080538b0+      LFSubField near * near WCValListIterBase<LFSubField near * near,WCPtrSList<LFSubField near > near,WCNIsvSLink<LFSubField near * near > near >::current() const
080538d0+      near WCPtrSListIter<my_ct_mlist near >::~WCPtrSListIter()
08053970+      near WCPtrSListIter<LFSubField near >::~WCPtrSListIter()
08053a10+      near WCPtrConstSListIter<my_ct_mlist near >::~WCPtrConstSListIter()
08053ad0+      near WCPtrConstSListIter<LFSubField near >::~WCPtrConstSListIter()
08053b90+      int near WCValListBase<LFSubField near * near,WCIsvSListBase<WCNIsvSLink<LFSubField near * near > near > near,WCNIsvSLink<LFSubField near * near > near >::append( LFSubField near * const near & )
08053bc0+      int near WCValListBase<my_ct_mlist near * near,WCIsvSListBase<WCNIsvSLink<my_ct_mlist near * near > near > near,WCNIsvSLink<my_ct_mlist near * near > near >::append( my_ct_mlist near * const near & )
08053bf0+      near WCPtrListBase<LFSubField near,WCValSList<LFSubField near * near > near >::WCPtrListBase( void near * (near *)( ), void (near *)())
08053c90+      near WCValSList<LFSubField near * near >::WCValSList( void near * (near *)( ), void (near *)())
08053d30+      near WCValSList<my_ct_mlist near * near >::WCValSList( void near * (near *)( ), void (near *)())
08053dd0+      near WCValListBase<LFSubField near * near,WCIsvSListBase<WCNIsvSLink<LFSubField near * near > near > near,WCNIsvSLink<LFSubField near * near > near >::WCValListBase( void near * (near *)( ), void (near *)())
08053e60+      WCNIsvSLink<LFSubField near * near > near * near WCValListBase<LFSubField near * near,WCIsvSListBase<WCNIsvSLink<LFSubField near * near > near > near,WCNIsvSLink<LFSubField near * near > near >::WCListNew( LFSubField near * const near & )
08053ea0+      near WCValListBase<my_ct_mlist near * near,WCIsvSListBase<WCNIsvSLink<my_ct_mlist near * near > near > near,WCNIsvSLink<my_ct_mlist near * near > near >::WCValListBase( void near * (near *)( ), void (near *)())
08053f30+      WCNIsvSLink<my_ct_mlist near * near > near * near WCValListBase<my_ct_mlist near * near,WCIsvSListBase<WCNIsvSLink<my_ct_mlist near * near > near > near,WCNIsvSLink<my_ct_mlist near * near > near >::WCListNew( my_ct_mlist near * const near & )
08053f70+      near WCIsvSListBase<WCNIsvSLink<LFSubField near * near > near >::WCIsvSListBase()
08053fe0+      near WCIsvSListBase<WCNIsvSLink<my_ct_mlist near * near > near >::WCIsvSListBase()
08051430+      void near LFOneMethod::DerivedPut( ExeMaker near & ) const
08051450+      void near LFVFuncOff::DerivedPut( ExeMaker near & ) const
08071028+      LFSubField near * (near * near LFFieldList::_subFieldConstructorTable[])( char const near * )
08084120+      TypeArray near * near LFLeafStruct::_localTypeArray
08084124+      TypeArray near * near LFLeafStruct::_globalTypeArray
Module: OWLinuxR\subsect.obj(D:\Projects\JWlink\cvpack\cpp\subsect.cpp)
08055740       near VariantString::VariantString( char const near *, int unsigned )
08055790       near WCListIterBase::WCListIterBase()
080557f0+      void near WCListIterBase::base_reset()
08055800       near SymbolStruct::SymbolStruct()
08055850       near SymbolStruct::~SymbolStruct()
080558f0       int unsigned near SymbolStruct::CodeSegment() const
08055900       int unsigned near SymbolStruct::DataSegment() const
08055910       int unsigned near SymbolStruct::MemOffset() const
08055920       void near SymbolStruct::SetParent( long unsigned )
08055930       void near SymbolStruct::SetNext( long unsigned )
08055940       void near SymbolStruct::SetEnd( long unsigned )
08055950       void near SymbolStruct::FixType()
08055960       bool near SymbolStruct::IsStartSym() const
08055970       long unsigned near SymbolStruct::cSum() const
08055990       char const near * near SymbolStruct::Name() const
080559a0       void near SymbolStruct::DerivedPut( ExeMaker near & ) const
080559b0       void near CSStartSearch::SetNext( long unsigned )
080559c0       near CSStartSearch::~CSStartSearch()
08055a60+      near CSPageAlign::~CSPageAlign()
08055b00+      near NameHashTable::~NameHashTable()
08055b40+      near AddrHashTable::~AddrHashTable()
080540d0+      void near SstGlobalTypes::FixUpTypes( short unsigned )
08054120+      void near SstGlobalTypes::ProcessTypes( LFTypeRecord near * )
08054260       bool near SstGlobalTypes::LoadTypes( Retriever near &, long unsigned )
08054620+      void near SstGlobalTypes::Append( LFTypeRecord near * )
080546a0       void near SstGlobalTypes::Put( ExeMaker near & ) const
08054790+      int unsigned near SymbolSubsection::DumpPageAlign( ExeMaker near &, int unsigned, char unsigned )
08054800+      int unsigned near SymbolSubsection::PageAlign( ExeMaker near &, int unsigned, long unsigned )
08054830+      int unsigned near SymbolSubsection::PadCount( int unsigned, long unsigned )
08054850+      int near SstAlignSym::InsertOneRecord( SymbolStruct near * )
08054960       int near SstAlignSym::Insert( SymbolStruct near * )
08054bb0       void near SstAlignSym::Put( ExeMaker near & ) const
08054ca0       void near SstGlobalSym::Put( ExeMaker near &, int unsigned )
08054fa0+      SymbolStruct near * near NameHashTable::Find( WCPtrSList<NameHashTable::chain_table near > const near &, long unsigned ) const
080550c0+      bool near NameHashTable::TryToInsert( SymbolStruct near * )
08055240+      void near NameHashTable::Put( ExeMaker near & ) const
08055c20+      near WCPtrListBase<NameHashTable::chain_table near,WCValSList<NameHashTable::chain_table near * near > near >::~WCPtrListBase()
08055c90+      near WCPtrListBase<AddrHashTable::offset_table near,WCValSList<AddrHashTable::offset_table near * near > near >::~WCPtrListBase()
08055d00+      int near WCValSList<NameHashTable::chain_table near * near >::base_equivalent( NameHashTable::chain_table near * const near &, NameHashTable::chain_table near * const near & ) const
08055d10+      near WCValSList<NameHashTable::chain_table near * near >::~WCValSList()
08055db0+      int near WCValSList<AddrHashTable::offset_table near * near >::base_equivalent( AddrHashTable::offset_table near * const near &, AddrHashTable::offset_table near * const near & ) const
08055dc0+      near WCValSList<AddrHashTable::offset_table near * near >::~WCValSList()
08055e60+      int near WCPtrSList<NameHashTable::chain_table near >::base_equivalent( NameHashTable::chain_table near * const near &, NameHashTable::chain_table near * const near & ) const
08055e80+      near WCPtrSList<NameHashTable::chain_table near >::WCPtrSList()
08055f20+      near WCPtrSList<NameHashTable::chain_table near >::~WCPtrSList()
08055fe0+      int near WCPtrSList<AddrHashTable::offset_table near >::base_equivalent( AddrHashTable::offset_table near * const near &, AddrHashTable::offset_table near * const near & ) const
08056000+      near WCPtrSList<AddrHashTable::offset_table near >::WCPtrSList()
080560a0+      near WCPtrSList<AddrHashTable::offset_table near >::~WCPtrSList()
08056160+      near WCStack<SymbolStruct near * near,WCPtrSList<SymbolStruct near > near >::WCStack()
08056200+      near WCStack<SymbolStruct near * near,WCPtrSList<SymbolStruct near > near >::~WCStack()
080562d0       near WCValListIterBase<LFTypeRecord near * near,WCPtrSList<LFTypeRecord near > near,WCNIsvSLink<LFTypeRecord near * near > near >::~WCValListIterBase()
08056320       LFTypeRecord near * near WCValListIterBase<LFTypeRecord near * near,WCPtrSList<LFTypeRecord near > near,WCNIsvSLink<LFTypeRecord near * near > near >::current() const
08056340+      near WCValListIterBase<SymbolStruct near * near,WCPtrSList<SymbolStruct near > near,WCNIsvSLink<SymbolStruct near * near > near >::~WCValListIterBase()
08056390+      SymbolStruct near * near WCValListIterBase<SymbolStruct near * near,WCPtrSList<SymbolStruct near > near,WCNIsvSLink<SymbolStruct near * near > near >::current() const
080563b0+      near WCValListIterBase<NameHashTable::chain_table near * near,WCPtrSList<NameHashTable::chain_table near > near,WCNIsvSLink<NameHashTable::chain_table near * near > near >::~WCValListIterBase()
08056400+      NameHashTable::chain_table near * near WCValListIterBase<NameHashTable::chain_table near * near,WCPtrSList<NameHashTable::chain_table near > near,WCNIsvSLink<NameHashTable::chain_table near * near > near >::current() const
08056420+      near WCValListIterBase<AddrHashTable::offset_table near * near,WCPtrSList<AddrHashTable::offset_table near > near,WCNIsvSLink<AddrHashTable::offset_table near * near > near >::~WCValListIterBase()
08056470+      AddrHashTable::offset_table near * near WCValListIterBase<AddrHashTable::offset_table near * near,WCPtrSList<AddrHashTable::offset_table near > near,WCNIsvSLink<AddrHashTable::offset_table near * near > near >::current() const
08056490       near WCPtrSListIter<LFTypeRecord near >::~WCPtrSListIter()
08056530+      near WCPtrSListIter<SymbolStruct near >::~WCPtrSListIter()
080565d0+      near WCPtrSListIter<NameHashTable::chain_table near >::~WCPtrSListIter()
08056670+      near WCPtrSListIter<AddrHashTable::offset_table near >::~WCPtrSListIter()
08056710+      near WCPtrConstSListIter<SymbolStruct near >::~WCPtrConstSListIter()
080567d0+      near WCPtrConstSListIter<NameHashTable::chain_table near >::WCPtrConstSListIter()
08056860+      near WCPtrConstSListIter<NameHashTable::chain_table near >::~WCPtrConstSListIter()
08056920+      near WCPtrConstSListIter<AddrHashTable::offset_table near >::WCPtrConstSListIter()
080569b0+      near WCPtrConstSListIter<AddrHashTable::offset_table near >::~WCPtrConstSListIter()
08056a70+      int near WCValListBase<SymbolStruct near * near,WCIsvSListBase<WCNIsvSLink<SymbolStruct near * near > near > near,WCNIsvSLink<SymbolStruct near * near > near >::insert( SymbolStruct near * const near & )
08056aa0+      int near WCValListBase<NameHashTable::chain_table near * near,WCIsvSListBase<WCNIsvSLink<NameHashTable::chain_table near * near > near > near,WCNIsvSLink<NameHashTable::chain_table near * near > near >::append( NameHashTable::chain_table near * const near & )
08056ad0+      int near WCValListBase<AddrHashTable::offset_table near * near,WCIsvSListBase<WCNIsvSLink<AddrHashTable::offset_table near * near > near > near,WCNIsvSLink<AddrHashTable::offset_table near * near > near >::append( AddrHashTable::offset_table near * const near & )
08056b00+      near WCPtrListBase<NameHashTable::chain_table near,WCValSList<NameHashTable::chain_table near * near > near >::WCPtrListBase( void near * (near *)( ), void (near *)())
08056ba0+      near WCPtrListBase<AddrHashTable::offset_table near,WCValSList<AddrHashTable::offset_table near * near > near >::WCPtrListBase( void near * (near *)( ), void (near *)())
08056c40+      near WCValSList<NameHashTable::chain_table near * near >::WCValSList( void near * (near *)( ), void (near *)())
08056ce0+      near WCValSList<AddrHashTable::offset_table near * near >::WCValSList( void near * (near *)( ), void (near *)())
08056d80+      near WCPtrSListIter<NameHashTable::chain_table near >::WCPtrSListIter()
08056e00+      near WCPtrSListIter<AddrHashTable::offset_table near >::WCPtrSListIter()
08056e80+      void near WCBareVectorBase<void near * near >::clear()
08056e90+      void near * near & near WCValVector<void near * near >::operator []( int )
08056f00+      void near WCIsvSListBase<WCNIsvSLink<LFTypeRecord near * near > near >::clearAndDestroy()
08056f10+      int near WCIsvSListBase<WCNIsvSLink<SymbolStruct near * near > near >::isEmpty() const
08056f20+      SymbolStruct near * near WCValListBase<SymbolStruct near * near,WCIsvSListBase<WCNIsvSLink<SymbolStruct near * near > near > near,WCNIsvSLink<SymbolStruct near * near > near >::find( int ) const
08056f30+      near WCValListBase<NameHashTable::chain_table near * near,WCIsvSListBase<WCNIsvSLink<NameHashTable::chain_table near * near > near > near,WCNIsvSLink<NameHashTable::chain_table near * near > near >::WCValListBase( void near * (near *)( ), void (near *)())
08056fc0+      WCNIsvSLink<NameHashTable::chain_table near * near > near * near WCValListBase<NameHashTable::chain_table near * near,WCIsvSListBase<WCNIsvSLink<NameHashTable::chain_table near * near > near > near,WCNIsvSLink<NameHashTable::chain_table near * near > near >::WCListNew( NameHashTable::chain_table near * const near & )
08057000+      near WCValListBase<AddrHashTable::offset_table near * near,WCIsvSListBase<WCNIsvSLink<AddrHashTable::offset_table near * near > near > near,WCNIsvSLink<AddrHashTable::offset_table near * near > near >::WCValListBase( void near * (near *)( ), void (near *)())
08057090+      WCNIsvSLink<AddrHashTable::offset_table near * near > near * near WCValListBase<AddrHashTable::offset_table near * near,WCIsvSListBase<WCNIsvSLink<AddrHashTable::offset_table near * near > near > near,WCNIsvSLink<AddrHashTable::offset_table near * near > near >::WCListNew( AddrHashTable::offset_table near * const near & )
080570d0+      near WCValListIterBase<NameHashTable::chain_table near * near,WCPtrSList<NameHashTable::chain_table near > near,WCNIsvSLink<NameHashTable::chain_table near * near > near >::WCValListIterBase()
08057130+      near WCValListIterBase<AddrHashTable::offset_table near * near,WCPtrSList<AddrHashTable::offset_table near > near,WCNIsvSLink<AddrHashTable::offset_table near * near > near >::WCValListIterBase()
08057190+      near WCIsvSListBase<WCNIsvSLink<NameHashTable::chain_table near * near > near >::WCIsvSListBase()
08057200+      near WCIsvSListBase<WCNIsvSLink<AddrHashTable::offset_table near * near > near >::WCIsvSListBase()
08055400+      bool near AddrHashTable::TryToInsert( SymbolStruct near * )
080554d0+      int near AddrHashTable::Compare( void const near *, void const near * )
08055500+      void near AddrHashTable::Put( ExeMaker near & ) const
08084128       WCStack<SymbolStruct near * near,WCPtrSList<SymbolStruct near > near > near SstAlignSym::symStack
Module: OWLinuxR\cssymbol.obj(D:\Projects\JWlink\cvpack\cpp\cssymbol.cpp)
08059b60+      near CSCompile::~CSCompile()
08059c20+      near CSRegister::~CSRegister()
08059cc0+      void near CSRegister::FixType()
08059ce0+      near CSConstant::~CSConstant()
08059da0+      void near CSConstant::FixType()
08059dc0+      near CSUdt::~CSUdt()
08059e60+      void near CSUdt::FixType()
08059e80+      near CSEndBlock::~CSEndBlock()
08059f20+      near CSObjName::~CSObjName()
08059fc0+      near CSEndOfArg::~CSEndOfArg()
0805a060+      near CSCobolUdt::~CSCobolUdt()
0805a100+      void near CSCobolUdt::FixType()
0805a120+      near CSManyReg::~CSManyReg()
0805a1e0+      void near CSManyReg::FixType()
0805a200+      near CSReturn::~CSReturn()
0805a2c0+      near CSEntryThis::~CSEntryThis()
0805a390+      near CSBPRel16::~CSBPRel16()
0805a430+      void near CSBPRel16::FixType()
0805a450+      near CSLData16::~CSLData16()
0805a4f0+      int unsigned near CSLData16::DataSegment() const
0805a500+      int unsigned near CSLData16::MemOffset() const
0805a510+      void near CSLData16::FixType()
0805a530+      near CSPub16::~CSPub16()
0805a5d0+      int unsigned near CSPub16::DataSegment() const
0805a5e0+      int unsigned near CSPub16::CodeSegment() const
0805a5f0+      int unsigned near CSPub16::MemOffset() const
0805a600+      void near CSPub16::FixType()
0805a620+      near CSLProc16::~CSLProc16()
0805a6c0+      int unsigned near CSLProc16::CodeSegment() const
0805a6d0+      int unsigned near CSLProc16::MemOffset() const
0805a6e0+      bool near CSLProc16::IsStartSym() const
0805a6f0+      void near CSLProc16::SetParent( long unsigned )
0805a700+      void near CSLProc16::SetNext( long unsigned )
0805a710+      void near CSLProc16::SetEnd( long unsigned )
0805a720+      void near CSLProc16::FixType()
0805a740+      near CSThunk16::~CSThunk16()
0805a7e0+      bool near CSThunk16::IsStartSym() const
0805a7f0+      int unsigned near CSThunk16::CodeSegment() const
0805a800+      int unsigned near CSThunk16::MemOffset() const
0805a810+      void near CSThunk16::SetParent( long unsigned )
0805a820+      void near CSThunk16::SetNext( long unsigned )
0805a830+      void near CSThunk16::SetEnd( long unsigned )
0805a840+      near CSBlock16::~CSBlock16()
0805a8e0+      bool near CSBlock16::IsStartSym() const
0805a8f0+      int unsigned near CSBlock16::CodeSegment() const
0805a900+      int unsigned near CSBlock16::MemOffset() const
0805a910+      void near CSBlock16::SetParent( long unsigned )
0805a920+      void near CSBlock16::SetEnd( long unsigned )
0805a930+      near CSWith16::~CSWith16()
0805a9f0+      bool near CSWith16::IsStartSym() const
0805aa00+      int unsigned near CSWith16::CodeSegment() const
0805aa10+      int unsigned near CSWith16::MemOffset() const
0805aa20+      void near CSWith16::SetParent( long unsigned )
0805aa30+      void near CSWith16::SetEnd( long unsigned )
0805aa40+      near CSLabel16::~CSLabel16()
0805aae0+      int unsigned near CSLabel16::CodeSegment() const
0805aaf0+      int unsigned near CSLabel16::MemOffset() const
0805ab00+      near CSCExModel16::~CSCExModel16()
0805abc0+      near CSVftPath16::~CSVftPath16()
0805ac60+      int unsigned near CSVftPath16::DataSegment() const
0805ac70+      int unsigned near CSVftPath16::MemOffset() const
0805ac80+      void near CSVftPath16::FixType()
0805acb0+      near CSRegRel16::~CSRegRel16()
0805ad50+      void near CSRegRel16::FixType()
0805ad70+      near CSBPRel32::~CSBPRel32()
0805ae10+      void near CSBPRel32::FixType()
0805ae30+      near CSLData32::~CSLData32()
0805aed0+      int unsigned near CSLData32::DataSegment() const
0805aee0+      int unsigned near CSLData32::MemOffset() const
0805aef0+      void near CSLData32::FixType()
0805af10+      near CSPub32::~CSPub32()
0805afb0+      int unsigned near CSPub32::DataSegment() const
0805afc0+      int unsigned near CSPub32::CodeSegment() const
0805afd0+      int unsigned near CSPub32::MemOffset() const
0805afe0+      void near CSPub32::FixType()
0805b000+      near CSPub32_new::~CSPub32_new()
0805b0a0+      int unsigned near CSPub32_new::DataSegment() const
0805b0b0+      int unsigned near CSPub32_new::CodeSegment() const
0805b0c0+      int unsigned near CSPub32_new::MemOffset() const
0805b0d0+      void near CSPub32_new::FixType()
0805b0f0+      near CSLProc32::~CSLProc32()
0805b190+      int unsigned near CSLProc32::CodeSegment() const
0805b1a0+      int unsigned near CSLProc32::MemOffset() const
0805b1b0+      bool near CSLProc32::IsStartSym() const
0805b1c0+      void near CSLProc32::SetParent( long unsigned )
0805b1d0+      void near CSLProc32::SetNext( long unsigned )
0805b1e0+      void near CSLProc32::SetEnd( long unsigned )
0805b1f0+      void near CSLProc32::FixType()
0805b210+      near CSThunk32::~CSThunk32()
0805b2b0+      bool near CSThunk32::IsStartSym() const
0805b2c0+      int unsigned near CSThunk32::CodeSegment() const
0805b2d0+      int unsigned near CSThunk32::MemOffset() const
0805b2e0+      void near CSThunk32::SetParent( long unsigned )
0805b2f0+      void near CSThunk32::SetNext( long unsigned )
0805b300+      void near CSThunk32::SetEnd( long unsigned )
0805b310+      near CSBlock32::~CSBlock32()
0805b3b0+      bool near CSBlock32::IsStartSym() const
0805b3c0+      int unsigned near CSBlock32::CodeSegment() const
0805b3d0+      int unsigned near CSBlock32::MemOffset() const
0805b3e0+      void near CSBlock32::SetParent( long unsigned )
0805b3f0+      void near CSBlock32::SetEnd( long unsigned )
0805b400+      near CSWith32::~CSWith32()
0805b4c0+      bool near CSWith32::IsStartSym() const
0805b4d0+      int unsigned near CSWith32::CodeSegment() const
0805b4e0+      int unsigned near CSWith32::MemOffset() const
0805b4f0+      void near CSWith32::SetParent( long unsigned )
0805b500+      void near CSWith32::SetEnd( long unsigned )
0805b510+      near CSLabel32::~CSLabel32()
0805b5b0+      int unsigned near CSLabel32::CodeSegment() const
0805b5c0+      int unsigned near CSLabel32::MemOffset() const
0805b5d0+      near CSCExModel32::~CSCExModel32()
0805b690+      near CSVftPath32::~CSVftPath32()
0805b730+      int unsigned near CSVftPath32::DataSegment() const
0805b740+      int unsigned near CSVftPath32::MemOffset() const
0805b750+      void near CSVftPath32::FixType()
0805b780+      near CSRegRel32::~CSRegRel32()
0805b820+      void near CSRegRel32::FixType()
0805b840+      near CSLThread32::~CSLThread32()
0805b8e0+      int unsigned near CSLThread32::DataSegment() const
0805b8f0+      int unsigned near CSLThread32::MemOffset() const
0805b900+      void near CSLThread32::FixType()
08057270       bool near SymbolStruct::operator ==( SymbolStruct const near & ) const
08057290       near SymbolStruct::SymbolStruct( short unsigned, short unsigned )
08057320+      near SymbolStruct::SymbolStruct( s_common )
080573c0+      near SymbolStruct::SymbolStruct( s_common, char const near *, int unsigned )
08057460+      char unsigned near SymbolStruct::byt_toupper( char unsigned )
08057470+      long unsigned near SymbolStruct::dwrd_toupper( long unsigned )
08057480       long unsigned near SymbolStruct::checkSum( char const near * )
080574f0       SymbolStruct near * near SymbolStruct::Error( char const near * )
08057520       SymbolStruct near * near CSCompile::Construct( char const near * )
08057630       SymbolStruct near * near CSRegister::Construct( char const near * )
08057700       SymbolStruct near * near CSConstant::Construct( char const near * )
08057830       SymbolStruct near * near CSUdt::Construct( char const near * )
080578f0       SymbolStruct near * near CSStartSearch::Construct( char const near * )
080579b0       SymbolStruct near * near CSEndBlock::Construct( char const near * )
08057a50       SymbolStruct near * near CSSkipRecord::Construct( char const near * )
08057a60       SymbolStruct near * near CSObjName::Construct( char const near * )
08057b20       SymbolStruct near * near CSEndOfArg::Construct( char const near * )
08057bc0       SymbolStruct near * near CSCobolUdt::Construct( char const near * )
08057c80       SymbolStruct near * near CSManyReg::Construct( char const near * )
08057da0       SymbolStruct near * near CSReturn::Construct( char const near * )
08057ec0       SymbolStruct near * near CSEntryThis::Construct( char const near * )
08057fc0       SymbolStruct near * near CSBPRel16::Construct( char const near * )
08058090       SymbolStruct near * near CSLData16::Construct( char const near * )
08058170       SymbolStruct near * near CSPub16::Construct( char const near * )
08058250       SymbolStruct near * near CSLProc16::Construct( char const near * )
08058360       SymbolStruct near * near CSThunk16::Construct( char const near * )
08058450       SymbolStruct near * near CSBlock16::Construct( char const near * )
08058530       SymbolStruct near * near CSWith16::Construct( char const near * )
08058630       SymbolStruct near * near CSLabel16::Construct( char const near * )
08058700       SymbolStruct near * near CSCExModel16::Construct( char const near * )
08058810       SymbolStruct near * near CSVftPath16::Construct( char const near * )
080588e0       SymbolStruct near * near CSRegRel16::Construct( char const near * )
080589b0       SymbolStruct near * near CSBPRel32::Construct( char const near * )
08058a80       SymbolStruct near * near CSLData32::Construct( char const near * )
08058b60       SymbolStruct near * near CSPub32::Construct( char const near * )
08058c40       SymbolStruct near * near CSPub32_new::Construct( char const near * )
08058d20       SymbolStruct near * near CSLProc32::Construct( char const near * )
08058e20       SymbolStruct near * near CSThunk32::Construct( char const near * )
08058f10       SymbolStruct near * near CSBlock32::Construct( char const near * )
08058ff0       SymbolStruct near * near CSWith32::Construct( char const near * )
080590f0       SymbolStruct near * near CSLabel32::Construct( char const near * )
080591c0       SymbolStruct near * near CSCExModel32::Construct( char const near * )
080592d0       SymbolStruct near * near CSVftPath32::Construct( char const near * )
080593a0       SymbolStruct near * near CSRegRel32::Construct( char const near * )
08059470       SymbolStruct near * near CSLThread32::Construct( char const near * )
08059560+      void near CSCompile::DerivedPut( ExeMaker near & ) const
08059590+      void near CSRegister::DerivedPut( ExeMaker near & ) const
080595b0+      void near CSConstant::DerivedPut( ExeMaker near & ) const
080595e0+      void near CSUdt::DerivedPut( ExeMaker near & ) const
08059600       void near CSStartSearch::DerivedPut( ExeMaker near & ) const
08059620+      void near CSObjName::DerivedPut( ExeMaker near & ) const
08059640+      void near CSCobolUdt::DerivedPut( ExeMaker near & ) const
08059660+      void near CSManyReg::DerivedPut( ExeMaker near & ) const
08059690+      void near CSReturn::DerivedPut( ExeMaker near & ) const
080596c0+      void near CSEntryThis::DerivedPut( ExeMaker near & ) const
080596d0       void near SymbolStruct::Put( ExeMaker near & ) const
08059740+      void near CSBPRel16::DerivedPut( ExeMaker near & ) const
08059760+      void near CSLData16::DerivedPut( ExeMaker near & ) const
08059780+      void near CSPub16::DerivedPut( ExeMaker near & ) const
080597a0+      void near CSLProc16::DerivedPut( ExeMaker near & ) const
080597c0+      void near CSThunk16::DerivedPut( ExeMaker near & ) const
080597e0+      void near CSBlock16::DerivedPut( ExeMaker near & ) const
08059800+      void near CSWith16::DerivedPut( ExeMaker near & ) const
08059820+      void near CSLabel16::DerivedPut( ExeMaker near & ) const
08059840+      void near CSCExModel16::DerivedPut( ExeMaker near & ) const
08059870+      void near CSVftPath16::DerivedPut( ExeMaker near & ) const
08059890+      void near CSRegRel16::DerivedPut( ExeMaker near & ) const
080598b0+      void near CSBPRel32::DerivedPut( ExeMaker near & ) const
080598d0+      void near CSLData32::DerivedPut( ExeMaker near & ) const
080598f0+      void near CSPub32::DerivedPut( ExeMaker near & ) const
08059910+      void near CSPub32_new::DerivedPut( ExeMaker near & ) const
08059930+      void near CSLProc32::DerivedPut( ExeMaker near & ) const
08059950+      void near CSThunk32::DerivedPut( ExeMaker near & ) const
08059970+      void near CSBlock32::DerivedPut( ExeMaker near & ) const
08059990+      void near CSWith32::DerivedPut( ExeMaker near & ) const
080599b0+      void near CSLabel32::DerivedPut( ExeMaker near & ) const
080599d0+      void near CSCExModel32::DerivedPut( ExeMaker near & ) const
08059a00+      void near CSVftPath32::DerivedPut( ExeMaker near & ) const
08059a20+      void near CSRegRel32::DerivedPut( ExeMaker near & ) const
08059a40+      void near CSLThread32::DerivedPut( ExeMaker near & ) const
08059a60       void near CSProcRef::DerivedPut( ExeMaker near & ) const
08059ac0       void near CSDataRef::DerivedPut( ExeMaker near & ) const
0805b9a0+      near cv_proc::__sspdf::__sspdf( cv_proc::__sspdf const near & )
0805ba00+      near __8tjdl6cv_return_flags::__uiq7nf::__uiq7nf( __8tjdl6cv_return_flags::__uiq7nf const near & )
0805ba30+      near __6bn8u8cv_compile::__101t1f::__101t1f( __6bn8u8cv_compile::__101t1f const near & )
08059b20       void near CSPageAlign::DerivedPut( ExeMaker near & ) const
0807177c+      char near * near SymbolStruct::_padTable[]
Module: OWLinuxR\makeexe.obj(D:\Projects\JWlink\cvpack\cpp\makeexe.cpp)
0805bc10+      near WriteError::~WriteError()
0805bc20+      near WriteError::WriteError( WriteError const near & )
0805bc40+      near WCValListIterBase<cv_dir_entry near * near,WCPtrSList<cv_dir_entry near > near,WCNIsvSLink<cv_dir_entry near * near > near >::~WCValListIterBase()
0805bc90+      cv_dir_entry near * near WCValListIterBase<cv_dir_entry near * near,WCPtrSList<cv_dir_entry near > near,WCNIsvSLink<cv_dir_entry near * near > near >::current() const
0805bcb0+      near WCPtrSListIter<cv_dir_entry near >::~WCPtrSListIter()
0805bd50+      near WCPtrConstSListIter<cv_dir_entry near >::~WCPtrConstSListIter()
0805be10+      int near WCValListBase<cv_dir_entry near * near,WCIsvSListBase<WCNIsvSLink<cv_dir_entry near * near > near > near,WCNIsvSLink<cv_dir_entry near * near > near >::append( cv_dir_entry near * const near & )
0805be40+      WCNIsvSLink<cv_dir_entry near * near > near * near WCValListBase<cv_dir_entry near * near,WCIsvSListBase<WCNIsvSLink<cv_dir_entry near * near > near > near,WCNIsvSLink<cv_dir_entry near * near > near >::WCListNew( cv_dir_entry near * const near & )
0805baa0       void near ODirectory::Insert( __anonymous_enum, short unsigned, long unsigned, long unsigned )
0805bae0       void near ODirectory::Put( ExeMaker near & )
0805bbd0       void near ExeMaker::Write( char const near *, int unsigned )
Module: OWLinuxR\symdis.obj(D:\Projects\JWlink\cvpack\cpp\symdis.cpp)
0805c3c0+      near CSProcRef::~CSProcRef()
0805c480+      long unsigned near CSProcRef::cSum() const
0805c490+      int unsigned near CSProcRef::DataSegment() const
0805c4a0+      int unsigned near CSProcRef::MemOffset() const
0805c4b0+      char const near * near CSProcRef::Name() const
0805c4c0+      near CSDataRef::~CSDataRef()
0805c580+      long unsigned near CSDataRef::cSum() const
0805c590+      int unsigned near CSDataRef::DataSegment() const
0805c5a0+      int unsigned near CSDataRef::MemOffset() const
0805c5b0+      char const near * near CSDataRef::Name() const
0805c650+      int near WCValListBase<SymbolStruct near * near,WCIsvSListBase<WCNIsvSLink<SymbolStruct near * near > near > near,WCNIsvSLink<SymbolStruct near * near > near >::isEmpty() const
0805be80+      void near SymbolDistributor::Build( char const near *, int unsigned, SstAlignSym near & ) const
0805c330       bool near SymbolDistributor::Distribute( int unsigned, SstAlignSym near & ) const
08071a98       SymbolStruct near * (near * near SymbolDistributor::_symConstructorTable[])( char const near * )
Module: OWLinuxR\typemap.obj(D:\Projects\JWlink\cvpack\cpp\typemap.cpp)
0805cae0+      TypeIndexMap::__304un0mappingStruct const near & near WCValVector<TypeIndexMap::__304un0mappingStruct near >::operator []( int ) const
0805cb30+      int near WCBareVectorBase<TypeIndexMap::__304un0mappingStruct near >::base_index_check( int ) const
0805c660       near TypeIndexMap::TypeIndexMap( int unsigned, short unsigned )
0805c720       void near TypeIndexMap::Insert( short unsigned, short unsigned )
0805c870       short unsigned near TypeIndexMap::Lookup( short unsigned ) const
0805c960       void near TypeIndexMap::Reset( int unsigned )
Module: OWLinuxR\typearay.obj(D:\Projects\JWlink\cvpack\cpp\typearay.cpp)
0805d050+      near GlobalTypeContainer::~GlobalTypeContainer()
0805d060+      near GlobalListContainer::GlobalListContainer()
0805d100+      near GlobalListContainer::~GlobalListContainer()
0805d1d0+      WCPtrSList<LFTypeRecord near > near & near GlobalListContainer::Find( LFTypeRecord near * )
0805d1e0+      void near GlobalListContainer::Insert( LFTypeRecord near * )
0805d200+      near GlobalHashContainer::GlobalHashContainer()
0805d280+      near GlobalHashContainer::~GlobalHashContainer()
0805d340+      WCPtrSList<LFTypeRecord near > near & near GlobalHashContainer::Find( LFTypeRecord near * )
0805cb60+      void near GlobalHashContainer::Insert( LFTypeRecord near * )
0805cbb0+      void near GlobalHashContainer::Rehash()
0805cd30+      long unsigned near GlobalHashContainer::HFn( VariantString near & )
0805cd70       near GlobalTypeArray::GlobalTypeArray()
0805cfa0       void near GlobalTypeArray::DerivedInsert( LFTypeRecord near * )
0805d3a0       near WCPtrSListIter<LFTypeRecord near >::WCPtrSListIter()
0805d420+      near WCValListIterBase<LFTypeRecord near * near,WCPtrSList<LFTypeRecord near > near,WCNIsvSLink<LFTypeRecord near * near > near >::WCValListIterBase()
0805cfc0       WCPtrSList<LFTypeRecord near > near & near GlobalTypeArray::Find( LFTypeRecord near * )
0805d010       void near LocalTypeArray::DerivedInsert( LFTypeRecord near * )
Module: OWLinuxR\typercrd.obj(D:\Projects\JWlink\cvpack\cpp\typercrd.cpp)
0805d990+      near LFTypeRecord::~LFTypeRecord()
0805da20+      bool near LFTypeRecord::IsEquivalent( LFTypeRecord near & )
0805da40+      near LFGlobalTypeRecord::~LFGlobalTypeRecord()
0805dad0+      near Recorder::Recorder()
0805db60+      near Recorder::~Recorder()
0805dbd0+      near MyNodeStack::MyNodeStack()
0805dc60+      near MyNodeStack::~MyNodeStack()
0805d550       bool near LFTypeRecord::operator ==( LFTypeRecord const near & ) const
0805d570+      int unsigned near LFTypeRecord::ConvertIndex( short unsigned )
0805d5a0       near LFTypeRecord::LFTypeRecord( short unsigned, char const near * )
0805d5f0+      near LFTypeRecord::LFTypeRecord( LFTypeRecord near * )
0805d620       near LFGlobalTypeRecord::LFGlobalTypeRecord( short unsigned, char const near * )
0805d680       near LFGlobalTypeRecord::LFGlobalTypeRecord( LFTypeRecord near * )
0805dcd0+      near WCPtrListBase<LFGlobalTypeRecord near,WCValSList<LFGlobalTypeRecord near * near > near >::~WCPtrListBase()
0805dd40+      int near WCValSList<short unsigned near >::base_equivalent( short unsigned const near &, short unsigned const near & ) const
0805dd50+      near WCValSList<short unsigned near >::~WCValSList()
0805ddf0+      int near WCValSList<LFGlobalTypeRecord near * near >::base_equivalent( LFGlobalTypeRecord near * const near &, LFGlobalTypeRecord near * const near & ) const
0805de00+      near WCValSList<LFGlobalTypeRecord near * near >::~WCValSList()
0805dea0+      int near WCPtrSList<LFGlobalTypeRecord near >::base_equivalent( LFGlobalTypeRecord near * const near &, LFGlobalTypeRecord near * const near & ) const
0805deb0+      near WCPtrSList<LFGlobalTypeRecord near >::WCPtrSList()
0805df50+      near WCPtrSList<LFGlobalTypeRecord near >::~WCPtrSList()
0805e010+      near WCValListIterBase<LFGlobalTypeRecord near * near,WCPtrSList<LFGlobalTypeRecord near > near,WCNIsvSLink<LFGlobalTypeRecord near * near > near >::~WCValListIterBase()
0805e060+      LFGlobalTypeRecord near * near WCValListIterBase<LFGlobalTypeRecord near * near,WCPtrSList<LFGlobalTypeRecord near > near,WCNIsvSLink<LFGlobalTypeRecord near * near > near >::current() const
0805e080+      near WCPtrSListIter<LFGlobalTypeRecord near >::~WCPtrSListIter()
0805e120+      near WCStack<short unsigned near,WCValSList<short unsigned near > near >::WCStack()
0805e1c0+      near WCStack<short unsigned near,WCValSList<short unsigned near > near >::~WCStack()
0805e280+      short unsigned near WCValListBase<short unsigned near,WCIsvSListBase<WCNIsvSLink<short unsigned near > near > near,WCNIsvSLink<short unsigned near > near >::get( int )
0805e2b0+      near WCPtrListBase<LFGlobalTypeRecord near,WCValSList<LFGlobalTypeRecord near * near > near >::WCPtrListBase( void near * (near *)( ), void (near *)())
0805e350+      near WCValSList<short unsigned near >::WCValSList()
0805e3f0+      near WCValSList<LFGlobalTypeRecord near * near >::WCValSList( void near * (near *)( ), void (near *)())
0805e490+      void near WCIsvSListBase<WCNIsvSLink<short unsigned near > near >::clearAndDestroy()
0805e4a0+      int near WCIsvSListBase<WCNIsvSLink<LFGlobalTypeRecord near * near > near >::entries() const
0805e4b0+      near WCValListBase<short unsigned near,WCIsvSListBase<WCNIsvSLink<short unsigned near > near > near,WCNIsvSLink<short unsigned near > near >::WCValListBase( void near * (near *)( ), void (near *)())
0805e540+      near WCValListBase<LFGlobalTypeRecord near * near,WCIsvSListBase<WCNIsvSLink<LFGlobalTypeRecord near * near > near > near,WCNIsvSLink<LFGlobalTypeRecord near * near > near >::WCValListBase( void near * (near *)( ), void (near *)())
0805e5d0+      near WCIsvSListBase<WCNIsvSLink<short unsigned near > near >::WCIsvSListBase()
0805e640+      near WCIsvSListBase<WCNIsvSLink<LFGlobalTypeRecord near * near > near >::WCIsvSListBase()
0805d6e0+      bool near LFGlobalTypeRecord::IsEquivalent( LFTypeRecord near & )
0805d800+      void near Recorder::RewindAndUndo()
0805d840+      void near MyNodeStack::MarkLoop( LFGlobalTypeRecord near * )
08071bd4+      LFLeafStruct near * (near * near LFTypeRecord::_typeConstructorTable[])( char const near *, int unsigned )
08084140+      MyNodeStack near LFGlobalTypeRecord::_nodeStack
08084158+      Recorder near LFGlobalTypeRecord::_recorder
Module: OWLinuxR\common.obj(D:\Projects\JWlink\cvpack\cpp\common.cpp)
0805e6b0       int unsigned near ToTypeIndex( int unsigned )
0805e6c0       int unsigned near ToTableIndex( short unsigned )
0805e6d0       int unsigned near PrefixStrLen( char const near * )
0805e6e0       void near Warning( char const near * )
Module: \watcom\lib386\plbx3r.lib(fsregist.cpp)
0805e720+      __wcpp_4_dispatch_dummy__
0805e744       __wcpp_4_fs_lookup__
0805e7e8       __wcpp_4_fs_handler_rtn__
0805e8bc       __wcpp_4_unwind_global__
0805e900       __wcpp_4_raise_exception__
Module: \watcom\lib386\plbx3r.lib(cppdata.cpp)
08084170       __wint_thread_data
08084194       __compiled_under_generic
Module: \watcom\lib386\plbx3r.lib(stablcl.cpp)
0805e930       __wcpp_4_lcl_register__
Module: \watcom\lib386\plbx3r.lib(dtorarst.cpp)
0805e940       __wcpp_4_dtor_array_store__
Module: \watcom\lib386\plbx3r.lib(opdelarr.cpp)
0805e970       void near operator delete []( void near * )
Module: \watcom\lib386\plbx3r.lib(opdel.cpp)
0805e980       void near operator delete( void near * )
Module: \watcom\lib386\plbx3r.lib(ifsdestr.cpp)
0805e990       near std::ifstream::~ifstream()
Module: \watcom\lib386\plbx3r.lib(ofsdestr.cpp)
0805eae0       near std::ofstream::~ofstream()
Module: \watcom\lib386\plbx3r.lib(stabthrw.cpp)
0805f3d0+      near std::exception::exception()
0805f410+      near std::exception::exception( std::exception const near & )
0805f460+      near std::exception::exception( char const near * )
0805f4a0+      near std::exception::~exception()
0805f530+      char const near * near std::exception::what() const
0805f570+      near std::bad_exception::bad_exception()
0805f5c0+      near std::bad_exception::bad_exception( std::bad_exception const near & )
0805f610+      near std::bad_exception::~bad_exception()
0805f29c*      __wcpp_4_rethrow__
0805f2e0       __wcpp_4_catch_done__
0805f340       __wcpp_4_throw__
0805f384*      __wcpp_4_throw_zero__
Module: \watcom\lib386\plbx3r.lib(opnewarr.cpp)
0805f6f0       void near * near operator new []( int unsigned )
Module: \watcom\lib386\plbx3r.lib(osttellp.cpp)
0805f700       long near std::ostream::tellp()
Module: \watcom\lib386\plbx3r.lib(ostspsto.cpp)
0805f740       std::ostream near & near std::ostream::seekp( long, int )
Module: \watcom\lib386\plbx3r.lib(ioicerr.cpp)
080841d8       std::ostream near std::cerr
0805f824+      near cerr_initfini::cerr_initfini()
0805f838+      near cerr_initfini::~cerr_initfini()
Module: \watcom\lib386\plbx3r.lib(ostincch.cpp)
0805f860       std::ostream near & near std::ostream::operator <<( char const near * )
Module: \watcom\lib386\plbx3r.lib(ostflush.cpp)
0805f8e0       std::ostream near & near std::ostream::flush()
Module: \watcom\lib386\plbx3r.lib(opnew.cpp)
0805f920       void near * near operator new( int unsigned )
Module: \watcom\lib386\plbx3r.lib(fsbclose.cpp)
0805f970       void near std::fstreambase::close()
Module: \watcom\lib386\plbx3r.lib(stabdtor.cpp)
0805fc60       __wcpp_4_destruct_internal__
0805fc7c       __wcpp_4_destruct_all__
0805fc80*      __wcpp_4_destruct__
Module: \watcom\lib386\plbx3r.lib(setnwhdl.cpp)
0805fca0       void (near * near set_new_handler( void (near *)()))()
Module: \watcom\lib386\linux\clib3r.lib(setjmp)
0805fcb0       _setjmp_
0805fcdf       longjmp_
Module: \watcom\lib386\linux\clib3r.lib(stricmp.c)
0805fd50       stricmp_
Module: \watcom\lib386\plbx3r.lib(flfoprot.cpp)
08070480       int const near std::filebuf::openprot
Module: \watcom\lib386\plbx3r.lib(ifsconnm.cpp)
0805fd90       near std::ifstream::ifstream( char const near *, int, int )
Module: \watcom\lib386\plbx3r.lib(ioicout.cpp)
08084258       std::ostream near std::cout
0805feb4+      near cout_initfini::cout_initfini()
0805febc+      near cout_initfini::~cout_initfini()
Module: \watcom\lib386\plbx3r.lib(manendl.cpp)
0805fed0       std::ostream near & near std::endl( std::ostream near & )
Module: \watcom\lib386\plbx3r.lib(ostinomn.cpp)
0805fef0       std::ostream near & near std::ostream::operator <<( std::ostream near & (near *)())
Module: \watcom\lib386\linux\clib3r.lib(tmpnm.c)
0805ff80       tmpnam_
Module: \watcom\lib386\plbx3r.lib(ofsconnm.cpp)
08060040       near std::ofstream::ofstream( char const near *, int, int )
Module: \watcom\lib386\linux\clib3r.lib(remove.c)
08060110       remove_
Module: \watcom\lib386\linux\clib3r.lib(rename.c)
08060120       rename_
Module: \watcom\lib386\linux\clib3r.lib(errno.c)
08060150       __get_errno_ptr_
08084394+      _errno
Module: \watcom\lib386\linux\clib3r.lib(strerror.c)
08060c90       strerror_
08060cb0*      _strerror_
08071f04+      __sys_errlist
080720fc+      __sys_nerr
Module: \watcom\lib386\linux\clib3r.lib(exit.c)
08060d71       exit_
08060d83*      _exit_
Module: \watcom\lib386\plbx3r.lib(opnewp.cpp)
08060d90       void near * near operator new( int unsigned, void near * )
Module: \watcom\lib386\plbx3r.lib(wcexcept.cpp)
08060da0       void near WCExcept::base_throw_empty_container() const
08060dc8       void near WCExcept::base_throw_index_range() const
08060df0       void near WCExcept::base_throw_not_empty()
08060e28*      void near WCExcept::base_throw_not_unique() const
08060e50       void near WCExcept::base_throw_out_of_memory() const
08060e78       void near WCExcept::base_throw_resize_required() const
08060ea0*      void near WCExcept::base_throw_zero_buckets() const
08060ec8       void near WCIterExcept::base_throw_iter_range() const
08060ef0       void near WCIterExcept::base_throw_undef_item() const
08060f40+      near WCIterExcept::failure::failure( WCIterExcept::failure const near & )
08060f50+      near WCIterExcept::failure::~failure()
08060f60+      near WCExcept::failure::failure( WCExcept::failure const near & )
08060f70+      near WCExcept::failure::~failure()
08060f80       near __WATCOM_exception::__WATCOM_exception( __WATCOM_exception const near & )
08060f90       near __WATCOM_exception::~__WATCOM_exception()
08060f18       void near WCIterExcept::base_throw_undef_iter() const
Module: \watcom\lib386\linux\clib3r.lib(memset.c)
08060fa0       memset_
Module: \watcom\lib386\plbx3r.lib(wclist.cpp)
08060fc0+      WCSLink near * near WCIsvListBase::base_next( WCSLink const near *, int ) const
08060fdc       void near WCIsvListBase::base_insert( WCSLink near * )
08061000+      int near WCIsvListBase::base_index_check( int ) const
08061038+      WCSLink near * near WCIsvListBase::base_bfind( int ) const
08061050       WCSLink near * near WCIsvListBase::base_sfind( int ) const
08061060+      WCDLink near * near WCIsvListBase::base_dfind( int ) const
080610ac       WCSLink near * near WCIsvListBase::base_sget( int )
080610e4*      WCDLink near * near WCIsvListBase::base_dget( int )
0806112c*      int near WCIsvListBase::base_index( WCSLink const near * ) const
08061174+      void near WCIsvListBase::base_clear()
08061184       void near WCIsvListBase::base_destroy()
080611c8       near WCIsvListBase::~WCIsvListBase()
0806122c       WCSLink near * near WCListIterBase::base_advance( int )
080612cc*      WCDLink near * near WCListIterBase::base_retreat( int )
08061370*      WCSLink near * near WCListIterBase::base_tail_hit( WCSLink near * )
0806138c*      void near WCListIterBase::base_tail_unhit( WCSLink near * )
Module: \watcom\lib386\plbx3r.lib(pure_err.cpp)
080613a0       __wcpp_4_pure_error__
Module: \watcom\lib386\plbx3r.lib(undefed.cpp)
080613d0       __wcpp_4_undefed_cdtor__
Module: \watcom\lib386\linux\clib3r.lib(cstart)
080613e2       _cstart_
080613e2*      _start
Module: \watcom\lib386\linux\clib3r.lib(cmainlnx.c)
08061450       __LinuxMain
08084498       __argc
0808449c+      __argv
Module: \watcom\lib386\plbx3r.lib(moddtorr.cpp)
0807346e       ___wcpp_4_data_module_dtor_ref_
Module: \watcom\lib386\plbx3r.lib(fsroot.cpp)
08073456       ___wcpp_4_data_init_fs_root_
Module: \watcom\lib386\plbx3r.lib(istsgstp.cpp)
080614f0       std::istream near & near std::istream::seekg( long )
Module: \watcom\lib386\plbx3r.lib(istread.cpp)
08061550       std::istream near & near std::istream::read( char near *, int )
Module: \watcom\lib386\linux\clib3r.lib(qsort.c)
08061640       qsort_
Module: \watcom\lib386\plbx3r.lib(istsgsto.cpp)
08061cf0       std::istream near & near std::istream::seekg( long, int )
Module: \watcom\lib386\plbx3r.lib(isttellg.cpp)
08061d40       long near std::istream::tellg()
Module: \watcom\lib386\plbx3r.lib(iosclear.cpp)
08061d70       int near std::ios::clear( int )
Module: \watcom\lib386\plbx3r.lib(ifsconfd.cpp)
08061d90       near std::ifstream::ifstream( int )
Module: \watcom\lib386\linux\clib3r.lib(strncmp.c)
08061e50       strncmp_
Module: \watcom\lib386\plbx3r.lib(ostinulo.cpp)
08061e80       std::ostream near & near std::ostream::operator <<( long unsigned )
Module: \watcom\lib386\plbx3r.lib(ctorarst.cpp)
080622c0+      near _RTDTOR::_RTDTOR()
08061fb0+      near _CTAS::~_CTAS()
080622d0+      near _CTAS::_CTAS()
08062148*      __wcpp_4_ctor_array_storage_1m__
08062190*      __wcpp_4_ctor_array_storage_1s__
080621d8*      __wcpp_4_ctor_array_storage_2s__
08062220*      __wcpp_4_ctor_array_storage_gm__
08062270       __wcpp_4_ctor_array_storage_gs__
Module: \watcom\lib386\linux\clib3r.lib(lrotl.c)
080622e0       _lrotl_
Module: \watcom\lib386\plbx3r.lib(ostwrite.cpp)
080622f0       std::ostream near & near std::ostream::write( char const near *, int )
Module: \watcom\lib386\plbx3r.lib(stabdisp.cpp)
080625cc       __wcpp_4_dispatchable__
Module: \watcom\lib386\plbx3r.lib(stabmod.cpp)
08062620       __wcpp_4_module_dtor__
0806264c       __wcpp_4_mod_register__
Module: \watcom\lib386\plbx3r.lib(stabadt.cpp)
08062660+      void near * near dtor_the_array( _RTARCTOR near * )
080626a4       near _RTARCTOR::~_RTARCTOR()
080626bc       __wcpp_4_dtor_array__
Module: \watcom\lib386\linux\clib3r.lib(nfree.c)
08062730       _nfree_
08062730       free_
080844a0+      ___MiniHeapFreeRover
Module: \watcom\lib386\plbx3r.lib(istdestr.cpp)
08062830       near std::istream::~istream()
Module: \watcom\lib386\plbx3r.lib(fsbdestr.cpp)
08062910       near std::fstreambase::~fstreambase()
Module: \watcom\lib386\plbx3r.lib(iosdestr.cpp)
08062a10       near std::ios::~ios()
Module: \watcom\lib386\plbx3r.lib(ostdestr.cpp)
08062aa0       near std::ostream::~ostream()
Module: \watcom\lib386\plbx3r.lib(exc_pr.cpp)
08062b80       near _EXC_PR::_EXC_PR( _RTCTL near *, RW_DTREG near *, EXCSTATE )
08062ba8       near _EXC_PR::~_EXC_PR()
08062bb8       near _EXC_PR_FREE::_EXC_PR_FREE( _RTCTL near *, RW_DTREG near *, EXCSTATE, ACTIVE_EXC near * )
08062bcc       near _EXC_PR_FREE::~_EXC_PR_FREE()
08062c04       near _EXC_PR_DTOR::_EXC_PR_DTOR( _RTCTL near *, RW_DTREG near *, EXCSTATE, ACTIVE_EXC near * )
08062c14       near _EXC_PR_FNEXC::_EXC_PR_FNEXC( _RTCTL near *, RW_DTREG near *, RW_DTREG near *, ACTIVE_EXC near * )
08062c34       near _EXC_PR_FNEXC::~_EXC_PR_FNEXC()
08062c3c       near _EXC_PR_DTOR::~_EXC_PR_DTOR()
Module: \watcom\lib386\plbx3r.lib(vfun_err.cpp)
08062c60       __wcpp_4_undef_vfun__
Module: \watcom\lib386\plbx3r.lib(unexpect.cpp)
08062c90       void near std::unexpected()
Module: \watcom\lib386\plbx3r.lib(callterm.cpp)
08062d30       __wcpp_4_corrupted_stack__
08062d44       __wcpp_4_call_terminate__
Module: \watcom\lib386\plbx3r.lib(tsequiv.cpp)
08062d70       __wcpp_4_ts_refed__
08062d88+      __wcpp_4_ts_pnted__
08062dbc       __wcpp_4_ts_equiv__
Module: \watcom\lib386\plbx3r.lib(stabinit.cpp)
08062eb0       __wcpp_4_exc_setup__
Module: \watcom\lib386\linux\clib3r.lib(stack386.c)
08062f50       stackavail_
Module: \watcom\lib386\plbx3r.lib(fatalerr.cpp)
08062f60       __wcpp_4_fatal_runtime_error__
Module: \watcom\lib386\linux\clib3r.lib(stk)
08062fad*      __STK
08062fb1*      __CHK
08062faa       __GRO
08062fca*      __STKOVERFLOW_
Module: \watcom\lib386\plbx3r.lib(allocexc.cpp)
08063064       __wcpp_4_alloc_exc__
080632b4       __wcpp_4_free_exc__
080632ec       __wcpp_4_find_active__
08063308       __wcpp_4_dtor_free_exc__
Module: \watcom\lib386\plbx3r.lib(stabtrav.cpp)
080633d0       __wcpp_4_stab_entry__
080633e8*      __wcpp_4_stab_trav_comp__
080634cc       __wcpp_4_stab_trav_init__
080634f0       __wcpp_4_stab_trav_next__
08063548       __wcpp_4_stab_trav_move__
Module: \watcom\lib386\plbx3r.lib(ljmpinit.cpp)
0807345c       ___wcpp_4_data_init_longjmp_
Module: \watcom\lib386\plbx3r.lib(ostopfx.cpp)
08063570       int near std::ostream::do_opfx()
Module: \watcom\lib386\plbx3r.lib(iossetst.cpp)
08063610+      near std::ios::failure::failure( std::ios::failure const near & )
08063620+      near std::ios::failure::~failure()
080635e0       void near std::ios::setstate( int )
Module: \watcom\lib386\linux\clib3r.lib(iobaddr.c)
08063630       __get_std_stream_
08063630*      __get_std_file_
Module: \watcom\lib386\plbx3r.lib(sdfconfp.cpp)
08063650       near stdiobuf::stdiobuf( __iobuf near * )
Module: \watcom\lib386\plbx3r.lib(ostconsf.cpp)
08063660       near std::ostream::ostream( std::streambuf near * )
Module: \watcom\lib386\plbx3r.lib(sdfdestr.cpp)
080636f0       near stdiobuf::~stdiobuf()
Module: \watcom\lib386\plbx3r.lib(iouwrtit.cpp)
080637d0       int near __WATCOM_ios::writeitem( std::ostream near &, char const near *, int, int )
Module: \watcom\lib386\linux\clib3r.lib(nmalloc.c)
08063b20       _nmalloc_
08063b20       malloc_
080721c0       ___nheapbeg
080721c4       ___MiniHeapRover
080721c8       ___LargestSizeB4MiniHeapRover
Module: \watcom\lib386\plbx3r.lib(flfclose.cpp)
08063c10       std::filebuf near * near std::filebuf::close()
Module: \watcom\lib386\linux\clib3r.lib(ljmphdl.c)
080721cc       ___longjmp_handler
Module: \watcom\lib386\plbx3r.lib(fsbconnm.cpp)
08063c60       near std::fstreambase::fstreambase( char const near *, int, int )
Module: \watcom\lib386\plbx3r.lib(istconde.cpp)
08063d50       near std::istream::istream()
Module: \watcom\lib386\plbx3r.lib(iosconde.cpp)
08063da0       near std::ios::ios()
Module: \watcom\lib386\plbx3r.lib(ostput.cpp)
08063db0       std::ostream near & near std::ostream::put( char )
Module: \watcom\lib386\linux\clib3r.lib(tmpdir.c)
08063e60       __tmpdir_
Module: \watcom\lib386\linux\clib3r.lib(getpid.c)
08063e80       getpid_
Module: \watcom\lib386\linux\clib3r.lib(access.c)
08063eb0       access_
Module: \watcom\lib386\linux\clib3r.lib(seterrno.c)
08063edc       __set_errno_
08063ee8*      __set_EDOM_
08063ef4*      __set_ERANGE_
08063f00*      __set_EINVAL_
Module: \watcom\lib386\plbx3r.lib(ostconde.cpp)
08063f20       near std::ostream::ostream()
Module: \watcom\lib386\linux\clib3r.lib(unlink.c)
08063f60       unlink_
Module: \watcom\lib386\linux\clib3r.lib(strncpy.c)
08063f90       strncpy_
Module: \watcom\lib386\linux\clib3r.lib(initrtns.c)
08063fe0       __InitRtns
08064030       __FiniRtns
Module: \watcom\lib386\linux\clib3r.lib(mainlnx.c)
080721d0+      ___FirstThreadData
080721d4+      ___GetThreadPtr
080721d8*      __AccessFileH
080721dc*      __ReleaseFileH
080721e0*      __AccessIOB
080721e4*      __ReleaseIOB
080721e8*      __AccessNHeap
080721ec*      __AccessFHeap
080721f0*      __ReleaseNHeap
080721f4*      __ReleaseFHeap
08064090*      __threadid_
080640c0*      __LinuxInit_
080640d0       __exit_
080721f8*      __AccessTDList
080721fc*      __ReleaseTDList
Module: \watcom\lib386\linux\clib3r.lib(__stos)
080640f0       __STOSB
08064127*      __STOSD
Module: \watcom\lib386\plbx3r.lib(prwdata.cpp)
080844a4       __wint_pure_error_flag
080844a6       __wint_undef_vfun_flag
080844a8       __wint_module_init
Module: \watcom\lib386\linux\clib3r.lib(segdefns)
08048103       ___begtext
08067000*      __nullarea
08073438       __Start_XI
0807346e       __End_XI
0807346e       __Start_YI
0807347a       __End_YI
Module: \watcom\lib386\linux\clib3r.lib(crwdata)
08072208*      __LpCmdLine
0807220c       __LpPgmName
08072200*      __dynend
08072204       __curbrk
08072210       __STACKLOW
08072214       __STACKTOP
08072218       __ASTACKSIZ
0807221c       __ASTACKPTR
08072220*      __cbyte
08072224*      __cbyte2
08072228*      __child
0807222e*      __Envptr
08072232*      __Envseg
0807222c*      __no87
08072234*      ___FPE_handler
Module: \watcom\lib386\linux\clib3r.lib(sbrklnx.c)
080641b0       sbrk_
080641c0       __brk_
080641f0*      brk_
Module: \watcom\lib386\linux\clib3r.lib(environ.c)
080844ac       ___env_mask
080844b0       _environ
080844b4*      __wenviron
Module: \watcom\lib386\linux\clib3r.lib(amblksiz.c)
08072238       __amblksiz
Module: \watcom\lib386\plbx3r.lib(istipfx.cpp)
08064220       int near std::istream::ipfx( int )
Module: \watcom\lib386\plbx3r.lib(stfdsgtn.cpp)
08064260       int near std::streambuf::do_sgetn( char near *, int )
Module: \watcom\lib386\plbx3r.lib(istdipfx.cpp)
080642e0       int near std::istream::do_ipfx( int )
Module: \watcom\lib386\plbx3r.lib(istdread.cpp)
08064370       std::istream near & near std::istream::do_read( char near *, int )
Module: \watcom\lib386\plbx3r.lib(fsbconfd.cpp)
08064420       near std::fstreambase::fstreambase( int )
Module: \watcom\lib386\plbx3r.lib(ioufgtba.cpp)
08064500       int near __FlagsToBase( long )
Module: \watcom\lib386\plbx3r.lib(ostadpre.cpp)
08064530       void near __AddPrefix( char, char near *, int near &, int, long )
Module: \watcom\lib386\linux\clib3r.lib(ltoa.c)
08064590       ultoa_
080645e0*      ltoa_
Module: \watcom\lib386\linux\clib3r.lib(strupr.c)
08064610       strupr_
Module: \watcom\lib386\plbx3r.lib(tssize.cpp)
08064654       __wcpp_4_ts_size__
Module: \watcom\lib386\plbx3r.lib(stabactv.cpp)
08064690       __wcpp_4_ctor_varray__
Module: \watcom\lib386\plbx3r.lib(stabact.cpp)
08064730       __wcpp_4_ctor_array__
Module: \watcom\lib386\plbx3r.lib(stfdspun.cpp)
080647c0       int near std::streambuf::do_sputn( char const near *, int )
Module: \watcom\lib386\linux\clib3r.lib(mem.c)
08064860       __MemAllocator
08064910       __MemFree
Module: \watcom\lib386\plbx3r.lib(flfdestr.cpp)
08064a50       near std::filebuf::~filebuf()
Module: \watcom\lib386\plbx3r.lib(ioufrxal.cpp)
08064b20       void near __WATCOM_ios::free_xalloc_storage( std::ios near * )
Module: \watcom\lib386\plbx3r.lib(termnate.cpp)
08064b40       void near std::terminate()
Module: \watcom\lib386\linux\clib3r.lib(_strcmp)
08064b70       strcmp_
Module: \watcom\lib386\linux\clib3r.lib(enterdb.c)
08064cb0       __EnterWVIDEO_
08072250+      ___WD_Present
Module: \watcom\lib386\linux\clib3r.lib(xmsglnx.c)
08064ce0       __exit_with_msg_
08064d30       __fatal_runtime_error_
Module: \watcom\lib386\plbx3r.lib(areaexc.cpp)
08072254       ___EXC_AREA
Module: \watcom\lib386\plbx3r.lib(bittest.cpp)
08064d50       __wcpp_4_bit_test__
08064d70       __wcpp_4_bit_off__
Module: \watcom\lib386\plbx3r.lib(ljmpdtor.cpp)
08064df8       __wcpp_4_lj_handler__
Module: \watcom\lib386\linux\clib3r.lib(flush.c)
08064e00       __flush_
Module: \watcom\lib386\plbx3r.lib(iosfail.cpp)
08064ed0       near std::ios::failure::failure( int )
Module: \watcom\lib386\linux\clib3r.lib(iob.c)
08073270       ___iob
080844b8       ___OpenStreams
080844bc       ___ClosedStreams
Module: \watcom\lib386\plbx3r.lib(stfpbfai.cpp)
08064ee0       int near std::streambuf::pbackfail( int )
Module: \watcom\lib386\plbx3r.lib(sdfoverf.cpp)
08064ef0       int near stdiobuf::overflow( int )
Module: \watcom\lib386\plbx3r.lib(sdfundrf.cpp)
08065050       int near stdiobuf::underflow()
Module: \watcom\lib386\plbx3r.lib(stfsbuf.cpp)
08065170       std::streambuf near * near std::streambuf::setbuf( char near *, int )
Module: \watcom\lib386\plbx3r.lib(stfseekp.cpp)
080651c0       long near std::streambuf::seekpos( long, int )
Module: \watcom\lib386\plbx3r.lib(sdfsync.cpp)
080651d0       int near stdiobuf::sync()
Module: \watcom\lib386\plbx3r.lib(stfdoall.cpp)
08065200       int near std::streambuf::doallocate()
Module: \watcom\lib386\plbx3r.lib(stfconde.cpp)
08065240       near std::streambuf::streambuf()
Module: \watcom\lib386\plbx3r.lib(iosinit.cpp)
08065290       void near std::ios::init( std::streambuf near * )
Module: \watcom\lib386\plbx3r.lib(stfdestr.cpp)
080652e0       near std::streambuf::~streambuf()
Module: \watcom\lib386\linux\clib3r.lib(nmemneed.c)
08065300       __nmemneed_
Module: \watcom\lib386\linux\clib3r.lib(grownear.c)
08065390+      __LastFree_
08065410       __ExpandDGROUP_
Module: \watcom\lib386\linux\clib3r.lib(close.c)
08065510       close_
Module: \watcom\lib386\plbx3r.lib(flfconde.cpp)
08065540       near std::filebuf::filebuf()
Module: \watcom\lib386\plbx3r.lib(flfopen.cpp)
08065560       std::filebuf near * near std::filebuf::open( char const near *, int, int )
Module: \watcom\lib386\linux\clib3r.lib(getenv.c)
08065600       getenv_
Module: \watcom\lib386\linux\clib3r.lib(mthrdini.c)
08065660       __InitThreadData_
08073430*      ___ThreadDataSize
Module: \watcom\lib386\linux\clib3r.lib(sys_exit.c)
08065670       sys_exit_
Module: \watcom\lib386\linux\clib3r.lib(dosseg)
00001234       __DOSseg__
Module: \watcom\lib386\linux\clib3r.lib(sys_brk.c)
08065680       sys_brk_
Module: \watcom\lib386\linux\clib3r.lib(setenvp.c)
080656a0       __setenvp_
Module: \watcom\lib386\plbx3r.lib(manws.cpp)
08065710       std::istream near & near std::ws( std::istream near & )
Module: \watcom\lib386\plbx3r.lib(flfattac.cpp)
08065740       std::filebuf near * near std::filebuf::attach( int )
Module: \watcom\lib386\linux\clib3r.lib(alphabet.c)
08067428       ___Alphabet
Module: \watcom\lib386\plbx3r.lib(flfpbfai.cpp)
08065780       int near std::filebuf::pbackfail( int )
Module: \watcom\lib386\plbx3r.lib(flfoverf.cpp)
08065840       int near std::filebuf::overflow( int )
Module: \watcom\lib386\plbx3r.lib(flfundrf.cpp)
08065a60       int near std::filebuf::underflow()
Module: \watcom\lib386\plbx3r.lib(flfsetbf.cpp)
08065b70       std::streambuf near * near std::filebuf::setbuf( char near *, int )
Module: \watcom\lib386\plbx3r.lib(flfseeko.cpp)
08065bd0       long near std::filebuf::seekoff( long, int, int )
Module: \watcom\lib386\plbx3r.lib(flfsync.cpp)
08065c20       int near std::filebuf::sync()
Module: \watcom\lib386\linux\clib3r.lib(liballoc.c)
08065cc0       _plib_malloc_
08065cd0       _plib_free_
Module: \watcom\lib386\linux\clib3r.lib(write.c)
08065ce0       write_
Module: \watcom\lib386\linux\clib3r.lib(__lseek.c)
08065d10       __lseek_
Module: \watcom\lib386\linux\clib3r.lib(qwritunx.c)
08065d40       __qwrite_
Module: \watcom\lib386\linux\clib3r.lib(fsync.c)
08065d90       fsync_
Module: \watcom\lib386\linux\clib3r.lib(initfile.c)
08065df0       __InitFiles_
Module: \watcom\lib386\linux\clib3r.lib(ioexit.c)
08065ef0*      fcloseall_
08065f00       __full_io_exit_
Module: \watcom\lib386\linux\clib3r.lib(fwrite.c)
08065f10       fwrite_
Module: \watcom\lib386\linux\clib3r.lib(memmove.c)
08066050       memmove_
Module: \watcom\lib386\linux\clib3r.lib(fgetc.c)
080660b0+      __fill_buffer_
08066160       fgetc_
Module: \watcom\lib386\plbx3r.lib(stfsetb.cpp)
080661d0       void near std::streambuf::setb( char near *, char near *, int )
Module: \watcom\lib386\linux\clib3r.lib(heapen.c)
08066230*      _heapenable_
08073434       ___heap_enabled
Module: \watcom\lib386\linux\clib3r.lib(plusopen.c)
08066240       __plusplus_open_
Module: \watcom\lib386\plbx3r.lib(istpeek.cpp)
08066300       int near std::istream::peek()
Module: \watcom\lib386\linux\clib3r.lib(isspace.c)
08066360       isspace_
Module: \watcom\lib386\plbx3r.lib(istget.cpp)
08066370       int near std::istream::get()
Module: \watcom\lib386\linux\clib3r.lib(plusfsta.c)
080663f0       __plusplus_fstat_
Module: \watcom\lib386\linux\clib3r.lib(lseek.c)
08066440       lseek_
Module: \watcom\lib386\linux\clib3r.lib(tell.c)
08066450       tell_
Module: \watcom\lib386\linux\clib3r.lib(read.c)
08066470       read_
Module: \watcom\lib386\linux\clib3r.lib(fclose.c)
080664a0+      __doclose_
08066510       __shutdown_stream_
08066530*      fclose_
Module: \watcom\lib386\linux\clib3r.lib(freefp.c)
08066560       __freefp_
080665a0       __purgefp_
Module: \watcom\lib386\linux\clib3r.lib(ioalloc.c)
080665d0       __ioalloc_
Module: \watcom\lib386\linux\clib3r.lib(flushall.c)
08066670       __flushall_
080666b0*      flushall_
Module: \watcom\lib386\linux\clib3r.lib(qreadunx.c)
080666c0       __qread_
Module: \watcom\lib386\linux\clib3r.lib(stat.c)
08066710       stat_
Module: \watcom\lib386\linux\clib3r.lib(openlnx.c)
08066740*      open_
08066760       sopen_
Module: \watcom\lib386\linux\clib3r.lib(istable.c)
08066780       __IsTable
Module: \watcom\lib386\linux\clib3r.lib(fcntl.c)
08066890       fcntl_
Module: \watcom\lib386\linux\clib3r.lib(chktty.c)
080668d0       __chktty_
Module: \watcom\lib386\linux\clib3r.lib(sys_open.c)
08066900       sys_open_
Module: \watcom\lib386\linux\clib3r.lib(isattlnx.c)
08066930       isatty_
Module: \watcom\lib386\linux\clib3r.lib(tcgattr.c)
08066970       tcgetattr_
Module: \watcom\lib386\linux\clib3r.lib(ioctl.c)
08066980       ioctl_
Module: \watcom\lib386\plbx3r.lib(stfseeko.cpp)
080669c0       long near std::streambuf::seekoff( long, int, int )
Module: \watcom\lib386\plbx3r.lib(stfsync.cpp)
080669d0       int near std::streambuf::sync()


                        +--------------------+
                        |   Libraries Used   |
                        +--------------------+

\watcom\lib386\linux\clib3r.lib
\watcom\lib386\plbx3r.lib


                        +-----------------------+
                        |   Linker Statistics   |
                        +-----------------------+

Stack size:  1000 (4096.)
Memory size:  0003bdc5 (245189.)
Entry point address: 080613e2
Link time: 00:00.32
